	.arch armv5t
	.fpu softvfp
	.eabi_attribute 20, 1
	.eabi_attribute 21, 1
	.eabi_attribute 23, 3
	.eabi_attribute 24, 1
	.eabi_attribute 25, 1
	.eabi_attribute 26, 2
	.eabi_attribute 30, 6
	.eabi_attribute 18, 2
	.file	"memory.c"
	.data
	.align	2
	.type	gbc_sound_wave_volume, %object
	.size	gbc_sound_wave_volume, 16
gbc_sound_wave_volume:
	.word	0
	.word	16384
	.word	8192
	.word	4096
	.align	2
	.type	prescale_table, %object
	.size	prescale_table, 16
prescale_table:
	.word	0
	.word	6
	.word	8
	.word	10
	.hidden	waitstate_cycles_sequential
	.global	waitstate_cycles_sequential
	.align	2
	.type	waitstate_cycles_sequential, %object
	.size	waitstate_cycles_sequential, 192
waitstate_cycles_sequential:
	.word	1
	.word	1
	.word	1
	.word	1
	.word	1
	.word	1
	.word	3
	.word	3
	.word	6
	.word	1
	.word	1
	.word	1
	.word	1
	.word	1
	.word	1
	.word	1
	.word	1
	.word	2
	.word	1
	.word	1
	.word	2
	.word	1
	.word	1
	.word	2
	.word	3
	.word	3
	.word	6
	.word	3
	.word	3
	.word	6
	.word	5
	.word	5
	.word	9
	.word	5
	.word	5
	.word	9
	.word	9
	.word	9
	.word	17
	.word	9
	.word	9
	.word	17
	.space	24
	.hidden	gamepak_waitstate_sequential
	.global	gamepak_waitstate_sequential
	.align	2
	.type	gamepak_waitstate_sequential, %object
	.size	gamepak_waitstate_sequential, 72
gamepak_waitstate_sequential:
	.word	3
	.word	3
	.word	6
	.word	5
	.word	5
	.word	9
	.word	9
	.word	9
	.word	17
	.word	2
	.word	2
	.word	3
	.word	2
	.word	2
	.word	3
	.word	2
	.word	2
	.word	3
	.hidden	palette_ram
	.comm	palette_ram,1024,4
	.hidden	oam_ram
	.comm	oam_ram,1024,4
	.hidden	palette_ram_converted
	.comm	palette_ram_converted,1024,4
	.hidden	io_registers
	.comm	io_registers,32768,4
	.hidden	ewram
	.comm	ewram,524288,4
	.hidden	iwram
	.comm	iwram,65536,4
	.hidden	vram
	.comm	vram,196608,4
	.hidden	bios_rom
	.comm	bios_rom,32768,4
	.hidden	bios_read_protect
	.comm	bios_read_protect,4,4
	.hidden	gamepak_backup
	.comm	gamepak_backup,131072,4
	.hidden	gamepak_rom
	.comm	gamepak_rom,4,4
	.hidden	gamepak_size
	.comm	gamepak_size,4,4
	.hidden	dma
	.comm	dma,176,4
	.hidden	memory_regions
	.comm	memory_regions,64,4
	.hidden	memory_limits
	.comm	memory_limits,64,4
	.hidden	gamepak_ram_buffer_size
	.comm	gamepak_ram_buffer_size,4,4
	.hidden	gamepak_ram_pages
	.comm	gamepak_ram_pages,4,4
	.hidden	gamepak_memory_map
	.comm	gamepak_memory_map,4,4
	.hidden	gamepak_file_large
	.global	gamepak_file_large
	.bss
	.align	2
	.type	gamepak_file_large, %object
	.size	gamepak_file_large, 4
gamepak_file_large:
	.space	4
	.hidden	direct_map_vram
	.global	direct_map_vram
	.align	2
	.type	direct_map_vram, %object
	.size	direct_map_vram, 4
direct_map_vram:
	.space	4
	.hidden	oam_update
	.global	oam_update
	.data
	.align	2
	.type	oam_update, %object
	.size	oam_update, 4
oam_update:
	.word	1
	.hidden	gbc_sound_update
	.global	gbc_sound_update
	.bss
	.align	2
	.type	gbc_sound_update, %object
	.size	gbc_sound_update, 4
gbc_sound_update:
	.space	4
	.hidden	gbc_sound_wave_update
	.global	gbc_sound_wave_update
	.align	2
	.type	gbc_sound_wave_update, %object
	.size	gbc_sound_wave_update, 4
gbc_sound_wave_update:
	.space	4
	.hidden	backup_update
	.global	backup_update
	.align	2
	.type	backup_update, %object
	.size	backup_update, 4
backup_update:
	.space	4
	.hidden	write_backup_delay
	.global	write_backup_delay
	.section	.rodata
	.align	2
	.type	write_backup_delay, %object
	.size	write_backup_delay, 4
write_backup_delay:
	.word	10
	.hidden	backup_type
	.global	backup_type
	.data
	.align	2
	.type	backup_type, %object
	.size	backup_type, 4
backup_type:
	.word	3
	.hidden	sram_size
	.global	sram_size
	.bss
	.align	2
	.type	sram_size, %object
	.size	sram_size, 4
sram_size:
	.space	4
	.hidden	flash_mode
	.global	flash_mode
	.align	2
	.type	flash_mode, %object
	.size	flash_mode, 4
flash_mode:
	.space	4
	.hidden	flash_command_position
	.global	flash_command_position
	.align	2
	.type	flash_command_position, %object
	.size	flash_command_position, 4
flash_command_position:
	.space	4
	.hidden	flash_bank_ptr
	.global	flash_bank_ptr
	.data
	.align	2
	.type	flash_bank_ptr, %object
	.size	flash_bank_ptr, 4
flash_bank_ptr:
	.word	gamepak_backup
	.hidden	flash_device_id
	.global	flash_device_id
	.align	2
	.type	flash_device_id, %object
	.size	flash_device_id, 4
flash_device_id:
	.word	28
	.hidden	flash_manufacturer_id
	.global	flash_manufacturer_id
	.align	2
	.type	flash_manufacturer_id, %object
	.size	flash_manufacturer_id, 4
flash_manufacturer_id:
	.word	194
	.hidden	flash_size
	.global	flash_size
	.bss
	.align	2
	.type	flash_size, %object
	.size	flash_size, 4
flash_size:
	.space	4
	.text
	.align	2
	.global	read_backup
	.hidden	read_backup
	.type	read_backup, %function
read_backup:
	@ args = 0, pretend = 0, frame = 16
	@ frame_needed = 1, uses_anonymous_args = 0
	@ link register save eliminated.
	str	fp, [sp, #-4]!
	add	fp, sp, #0
	sub	sp, sp, #20
	str	r0, [fp, #-16]
	ldr	r3, .L10
	ldr	r3, [r3, #0]
	cmp	r3, #3
	bne	.L2
	ldr	r3, .L10
	mov	r2, #0
	str	r2, [r3, #0]
.L2:
	ldr	r3, .L10
	ldr	r3, [r3, #0]
	cmp	r3, #0
	bne	.L3
	ldr	r3, [fp, #-16]
	ldr	r2, .L10+4
	ldrb	r3, [r2, r3]
	strb	r3, [fp, #-5]
	b	.L4
.L3:
	ldr	r3, .L10+8
	ldr	r3, [r3, #0]
	cmp	r3, #2
	bne	.L5
	ldr	r3, [fp, #-16]
	cmp	r3, #0
	bne	.L6
	ldr	r3, .L10+12
	ldr	r3, [r3, #0]
	strb	r3, [fp, #-5]
	b	.L4
.L6:
	ldr	r3, [fp, #-16]
	cmp	r3, #1
	bne	.L9
	ldr	r3, .L10+16
	ldr	r3, [r3, #0]
	strb	r3, [fp, #-5]
	b	.L4
.L5:
	ldr	r3, .L10+20
	ldr	r2, [r3, #0]
	ldr	r3, [fp, #-16]
	add	r3, r2, r3
	ldrb	r3, [r3, #0]
	strb	r3, [fp, #-5]
	b	.L4
.L9:
	mov	r0, r0	@ nop
.L4:
	ldrb	r3, [fp, #-5]	@ zero_extendqisi2
	mov	r0, r3
	add	sp, fp, #0
	ldmfd	sp!, {fp}
	bx	lr
.L11:
	.align	2
.L10:
	.word	backup_type
	.word	gamepak_backup
	.word	flash_mode
	.word	flash_manufacturer_id
	.word	flash_device_id
	.word	flash_bank_ptr
	.size	read_backup, .-read_backup
	.hidden	eeprom_size
	.global	eeprom_size
	.bss
	.align	2
	.type	eeprom_size, %object
	.size	eeprom_size, 4
eeprom_size:
	.space	4
	.hidden	eeprom_mode
	.global	eeprom_mode
	.align	2
	.type	eeprom_mode, %object
	.size	eeprom_mode, 4
eeprom_mode:
	.space	4
	.hidden	eeprom_address_length
	.comm	eeprom_address_length,4,4
	.hidden	eeprom_address
	.global	eeprom_address
	.align	2
	.type	eeprom_address, %object
	.size	eeprom_address, 4
eeprom_address:
	.space	4
	.hidden	eeprom_counter
	.global	eeprom_counter
	.align	2
	.type	eeprom_counter, %object
	.size	eeprom_counter, 4
eeprom_counter:
	.space	4
	.hidden	eeprom_buffer
	.comm	eeprom_buffer,8,4
	.text
	.align	2
	.global	write_eeprom
	.hidden	write_eeprom
	.type	write_eeprom, %function
write_eeprom:
	@ args = 0, pretend = 0, frame = 8
	@ frame_needed = 1, uses_anonymous_args = 0
	stmfd	sp!, {fp, lr}
	add	fp, sp, #4
	sub	sp, sp, #8
	str	r0, [fp, #-8]
	str	r1, [fp, #-12]
	ldr	r3, .L35
	ldr	r3, [r3, #0]
	cmp	r3, #7
	ldrls	pc, [pc, r3, asl #2]
	b	.L31
.L18:
	.word	.L14
	.word	.L31
	.word	.L31
	.word	.L15
	.word	.L16
	.word	.L15
	.word	.L17
	.word	.L17
.L14:
	ldr	r3, .L35+4
	mov	r2, #2
	str	r2, [r3, #0]
	ldr	r3, .L35+8
	ldrb	r2, [r3, #0]	@ zero_extendqisi2
	ldr	r3, [fp, #-12]
	and	r1, r3, #1
	ldr	r3, .L35+12
	ldr	r3, [r3, #0]
	rsb	r3, r3, #1
	mov	r3, r1, asl r3
	and	r3, r3, #255
	orr	r3, r2, r3
	and	r2, r3, #255
	ldr	r3, .L35+8
	strb	r2, [r3, #0]
	ldr	r3, .L35+12
	ldr	r3, [r3, #0]
	add	r2, r3, #1
	ldr	r3, .L35+12
	str	r2, [r3, #0]
	ldr	r3, .L35+12
	ldr	r3, [r3, #0]
	cmp	r3, #2
	bne	.L32
	ldr	r3, .L35+16
	ldr	r3, [r3, #0]
	cmp	r3, #0
	bne	.L20
	ldr	r3, .L35+20
	mov	r2, #6
	str	r2, [r3, #0]
	b	.L21
.L20:
	ldr	r3, .L35+20
	mov	r2, #14
	str	r2, [r3, #0]
.L21:
	ldr	r3, .L35+12
	mov	r2, #0
	str	r2, [r3, #0]
	ldr	r3, .L35+8
	ldrb	r3, [r3, #0]	@ zero_extendqisi2
	and	r3, r3, #3
	cmp	r3, #2
	beq	.L23
	cmp	r3, #3
	beq	.L24
	b	.L22
.L23:
	ldr	r3, .L35
	mov	r2, #5
	str	r2, [r3, #0]
	b	.L22
.L24:
	ldr	r3, .L35
	mov	r2, #3
	str	r2, [r3, #0]
.L22:
	ldr	r3, .L35+8
	mov	r2, #0
	strh	r2, [r3, #0]	@ movhi
	b	.L31
.L15:
	ldr	r3, .L35+12
	ldr	r3, [r3, #0]
	add	r2, r3, #7
	cmp	r3, #0
	movlt	r3, r2
	mov	r3, r3, asr #3
	mov	r1, r3
	ldr	r2, .L35+8
	ldrb	r0, [r2, r3]	@ zero_extendqisi2
	ldr	r3, [fp, #-12]
	and	ip, r3, #1
	ldr	r3, .L35+12
	ldr	r2, [r3, #0]
	mov	r3, r2, asr #31
	mov	r3, r3, lsr #29
	add	r2, r2, r3
	and	r2, r2, #7
	rsb	r3, r3, r2
	rsb	r3, r3, #7
	mov	r3, ip, asl r3
	and	r3, r3, #255
	orr	r3, r0, r3
	and	r2, r3, #255
	ldr	r3, .L35+8
	strb	r2, [r3, r1]
	ldr	r3, .L35+12
	ldr	r3, [r3, #0]
	add	r2, r3, #1
	ldr	r3, .L35+12
	str	r2, [r3, #0]
	ldr	r3, .L35+12
	ldr	r3, [r3, #0]
	mov	r2, r3
	ldr	r3, .L35+20
	ldr	r3, [r3, #0]
	cmp	r2, r3
	bne	.L33
	ldr	r3, .L35+16
	ldr	r3, [r3, #0]
	cmp	r3, #0
	bne	.L26
	ldr	r3, .L35+8
	ldrh	r3, [r3, #0]
	mov	r3, r3, lsr #2
	mov	r3, r3, asl #16
	mov	r3, r3, lsr #16
	mov	r3, r3, asl #3
	mov	r2, r3
	ldr	r3, .L35+24
	str	r2, [r3, #0]
	b	.L27
.L26:
	ldr	r3, .L35+8
	ldrb	r3, [r3, #1]	@ zero_extendqisi2
	mov	r3, r3, lsr #2
	and	r3, r3, #255
	mov	r2, r3
	ldr	r3, .L35+8
	ldrb	r3, [r3, #0]	@ zero_extendqisi2
	mov	r3, r3, asl #6
	orr	r3, r2, r3
	mov	r2, r3, asl #3
	ldr	r3, .L35+24
	str	r2, [r3, #0]
.L27:
	ldr	r3, .L35+8
	mov	r2, #0
	strh	r2, [r3, #0]	@ movhi
	ldr	r3, .L35+12
	mov	r2, #0
	str	r2, [r3, #0]
	ldr	r3, .L35
	ldr	r3, [r3, #0]
	cmp	r3, #3
	bne	.L28
	ldr	r3, .L35
	mov	r2, #6
	str	r2, [r3, #0]
	b	.L31
.L28:
	ldr	r3, .L35
	mov	r2, #4
	str	r2, [r3, #0]
	ldr	r3, .L35+24
	ldr	r2, [r3, #0]
	ldr	r3, .L35+28
	add	r3, r2, r3
	mov	r0, r3
	mov	r1, #0
	mov	r2, #8
	bl	memset
	b	.L31
.L16:
	ldr	r3, .L35+12
	ldr	r3, [r3, #0]
	add	r2, r3, #7
	cmp	r3, #0
	movlt	r3, r2
	mov	r3, r3, asr #3
	mov	r1, r3
	ldr	r2, .L35+24
	ldr	r2, [r2, #0]
	add	r1, r1, r2
	mov	r2, r3
	ldr	r3, .L35+24
	ldr	r3, [r3, #0]
	add	r3, r2, r3
	ldr	r2, .L35+28
	ldrb	r0, [r2, r3]	@ zero_extendqisi2
	ldr	r3, [fp, #-12]
	and	ip, r3, #1
	ldr	r3, .L35+12
	ldr	r2, [r3, #0]
	mov	r3, r2, asr #31
	mov	r3, r3, lsr #29
	add	r2, r2, r3
	and	r2, r2, #7
	rsb	r3, r3, r2
	rsb	r3, r3, #7
	mov	r3, ip, asl r3
	and	r3, r3, #255
	orr	r3, r0, r3
	and	r2, r3, #255
	ldr	r3, .L35+28
	strb	r2, [r3, r1]
	ldr	r3, .L35+12
	ldr	r3, [r3, #0]
	add	r2, r3, #1
	ldr	r3, .L35+12
	str	r2, [r3, #0]
	ldr	r3, .L35+12
	ldr	r3, [r3, #0]
	cmp	r3, #64
	bne	.L34
	ldr	r3, .L35+32
	ldr	r2, [r3, #0]
	ldr	r3, .L35+36
	str	r2, [r3, #0]
	ldr	r3, .L35+12
	mov	r2, #0
	str	r2, [r3, #0]
	ldr	r3, .L35
	mov	r2, #7
	str	r2, [r3, #0]
	b	.L31
.L17:
	ldr	r3, .L35+12
	mov	r2, #0
	str	r2, [r3, #0]
	ldr	r3, .L35
	ldr	r3, [r3, #0]
	cmp	r3, #6
	bne	.L30
	ldr	r3, .L35
	mov	r2, #2
	str	r2, [r3, #0]
	b	.L31
.L30:
	ldr	r3, .L35
	mov	r2, #0
	str	r2, [r3, #0]
	b	.L31
.L32:
	mov	r0, r0	@ nop
	b	.L31
.L33:
	mov	r0, r0	@ nop
	b	.L31
.L34:
	mov	r0, r0	@ nop
.L31:
	sub	sp, fp, #4
	ldmfd	sp!, {fp, pc}
.L36:
	.align	2
.L35:
	.word	eeprom_mode
	.word	backup_type
	.word	eeprom_buffer
	.word	eeprom_counter
	.word	eeprom_size
	.word	eeprom_address_length
	.word	eeprom_address
	.word	gamepak_backup
	.word	write_backup_delay
	.word	backup_update
	.size	write_eeprom, .-write_eeprom
	.align	2
	.global	read_eeprom
	.hidden	read_eeprom
	.type	read_eeprom, %function
read_eeprom:
	@ args = 0, pretend = 0, frame = 8
	@ frame_needed = 1, uses_anonymous_args = 0
	@ link register save eliminated.
	str	fp, [sp, #-4]!
	add	fp, sp, #0
	sub	sp, sp, #12
	ldr	r3, .L49
	ldr	r3, [r3, #0]
	cmp	r3, #1
	beq	.L40
	cmp	r3, #1
	bcc	.L39
	cmp	r3, #2
	beq	.L41
	b	.L46
.L39:
	mov	r3, #1
	str	r3, [fp, #-8]
	b	.L42
.L40:
	ldr	r3, .L49+4
	ldr	r3, [r3, #0]
	add	r2, r3, #7
	cmp	r3, #0
	movlt	r3, r2
	mov	r3, r3, asr #3
	mov	r2, r3
	ldr	r3, .L49+8
	ldr	r3, [r3, #0]
	add	r3, r2, r3
	ldr	r2, .L49+12
	ldrb	r3, [r2, r3]	@ zero_extendqisi2
	mov	r1, r3
	ldr	r3, .L49+4
	ldr	r2, [r3, #0]
	mov	r3, r2, asr #31
	mov	r3, r3, lsr #29
	add	r2, r2, r3
	and	r2, r2, #7
	rsb	r3, r3, r2
	rsb	r3, r3, #7
	mov	r3, r1, asr r3
	and	r3, r3, #1
	str	r3, [fp, #-8]
	ldr	r3, .L49+4
	ldr	r3, [r3, #0]
	add	r2, r3, #1
	ldr	r3, .L49+4
	str	r2, [r3, #0]
	ldr	r3, .L49+4
	ldr	r3, [r3, #0]
	cmp	r3, #64
	bne	.L47
	ldr	r3, .L49+4
	mov	r2, #0
	str	r2, [r3, #0]
	ldr	r3, .L49
	mov	r2, #0
	str	r2, [r3, #0]
	b	.L42
.L41:
	mov	r3, #0
	str	r3, [fp, #-8]
	ldr	r3, .L49+4
	ldr	r3, [r3, #0]
	add	r2, r3, #1
	ldr	r3, .L49+4
	str	r2, [r3, #0]
	ldr	r3, .L49+4
	ldr	r3, [r3, #0]
	cmp	r3, #4
	bne	.L48
	ldr	r3, .L49
	mov	r2, #1
	str	r2, [r3, #0]
	ldr	r3, .L49+4
	mov	r2, #0
	str	r2, [r3, #0]
	b	.L42
.L46:
	mov	r3, #0
	str	r3, [fp, #-8]
	b	.L42
.L47:
	mov	r0, r0	@ nop
	b	.L42
.L48:
	mov	r0, r0	@ nop
.L42:
	ldr	r3, [fp, #-8]
	mov	r0, r3
	add	sp, fp, #0
	ldmfd	sp!, {fp}
	bx	lr
.L50:
	.align	2
.L49:
	.word	eeprom_mode
	.word	eeprom_counter
	.word	eeprom_address
	.word	gamepak_backup
	.size	read_eeprom, .-read_eeprom
	.global	__aeabi_ui2d
	.global	__aeabi_ddiv
	.global	__aeabi_dmul
	.global	__aeabi_d2uiz
	.global	__aeabi_i2d
	.global	__aeabi_ui2f
	.global	__aeabi_fmul
	.global	__aeabi_f2d
	.align	2
	.global	write_io_register8
	.hidden	write_io_register8
	.type	write_io_register8, %function
write_io_register8:
	@ args = 0, pretend = 0, frame = 240
	@ frame_needed = 1, uses_anonymous_args = 0
	stmfd	sp!, {r4, r5, r6, fp, lr}
	add	fp, sp, #16
	sub	sp, sp, #244
	str	r0, [fp, #-256]
	str	r1, [fp, #-260]
	ldr	r3, [fp, #-256]
	cmp	r3, #115
	beq	.L85
	cmp	r3, #115
	bhi	.L119
	cmp	r3, #60
	beq	.L68
	cmp	r3, #60
	bhi	.L120
	cmp	r3, #43
	beq	.L59
	cmp	r3, #43
	bhi	.L121
	cmp	r3, #7
	bhi	.L122
	cmp	r3, #6
	bcs	.L230
	cmp	r3, #0
	beq	.L53
	cmp	r3, #4
	beq	.L54
	b	.L52
.L122:
	cmp	r3, #41
	beq	.L57
	cmp	r3, #41
	bhi	.L58
	cmp	r3, #40
	beq	.L56
	b	.L52
.L121:
	cmp	r3, #47
	beq	.L63
	cmp	r3, #47
	bhi	.L123
	cmp	r3, #45
	beq	.L61
	cmp	r3, #45
	bhi	.L62
	b	.L228
.L123:
	cmp	r3, #57
	beq	.L65
	cmp	r3, #57
	bhi	.L124
	cmp	r3, #56
	beq	.L64
	b	.L52
.L124:
	cmp	r3, #58
	beq	.L66
	cmp	r3, #59
	beq	.L67
	b	.L52
.L120:
	cmp	r3, #100
	beq	.L76
	cmp	r3, #100
	bhi	.L125
	cmp	r3, #96
	beq	.L72
	cmp	r3, #96
	bhi	.L126
	cmp	r3, #62
	beq	.L70
	cmp	r3, #62
	bcc	.L69
	cmp	r3, #63
	beq	.L71
	b	.L52
.L126:
	cmp	r3, #98
	beq	.L74
	cmp	r3, #98
	bhi	.L75
	b	.L229
.L125:
	cmp	r3, #108
	beq	.L80
	cmp	r3, #108
	bhi	.L127
	cmp	r3, #104
	beq	.L78
	cmp	r3, #105
	beq	.L79
	cmp	r3, #101
	beq	.L77
	b	.L52
.L127:
	cmp	r3, #112
	beq	.L82
	cmp	r3, #112
	bhi	.L128
	cmp	r3, #109
	beq	.L81
	b	.L52
.L128:
	cmp	r3, #113
	beq	.L83
	cmp	r3, #114
	beq	.L84
	b	.L52
.L119:
	cmp	r3, #199
	beq	.L101
	cmp	r3, #199
	bhi	.L129
	cmp	r3, #129
	beq	.L93
	cmp	r3, #129
	bhi	.L130
	cmp	r3, #121
	beq	.L89
	cmp	r3, #121
	bhi	.L131
	cmp	r3, #117
	beq	.L87
	cmp	r3, #117
	bcc	.L86
	cmp	r3, #120
	beq	.L88
	b	.L52
.L131:
	cmp	r3, #125
	beq	.L91
	cmp	r3, #128
	beq	.L92
	cmp	r3, #124
	beq	.L90
	b	.L52
.L130:
	cmp	r3, #159
	bhi	.L132
	cmp	r3, #144
	bcs	.L97
	cmp	r3, #131
	beq	.L95
	cmp	r3, #131
	bcc	.L94
	cmp	r3, #132
	beq	.L96
	b	.L52
.L132:
	cmp	r3, #164
	beq	.L99
	cmp	r3, #187
	beq	.L100
	cmp	r3, #160
	beq	.L98
	b	.L52
.L129:
	cmp	r3, #264
	beq	.L110
	cmp	r3, #264
	bhi	.L133
	ldr	r2, .L243
	cmp	r3, r2
	beq	.L105
	ldr	r2, .L243
	cmp	r3, r2
	bhi	.L134
	cmp	r3, #223
	beq	.L103
	cmp	r3, #256
	beq	.L104
	cmp	r3, #211
	beq	.L102
	b	.L52
.L134:
	cmp	r3, #260
	beq	.L107
	cmp	r3, #260
	bhi	.L135
	ldr	r2, .L243+4
	cmp	r3, r2
	beq	.L106
	b	.L52
.L135:
	ldr	r2, .L243+8
	cmp	r3, r2
	beq	.L108
	ldr	r2, .L243+12
	cmp	r3, r2
	beq	.L109
	b	.L52
.L133:
	ldr	r2, .L243+16
	cmp	r3, r2
	beq	.L114
	ldr	r2, .L243+16
	cmp	r3, r2
	bhi	.L136
	ldr	r2, .L243+20
	cmp	r3, r2
	beq	.L112
	ldr	r2, .L243+20
	cmp	r3, r2
	bhi	.L113
	ldr	r2, .L243+24
	cmp	r3, r2
	beq	.L111
	b	.L52
.L136:
	ldr	r2, .L243+28
	cmp	r3, r2
	beq	.L116
	ldr	r2, .L243+28
	cmp	r3, r2
	bhi	.L137
	ldr	r2, .L243+32
	cmp	r3, r2
	beq	.L115
	b	.L52
.L137:
	ldr	r2, .L243+36
	cmp	r3, r2
	beq	.L117
	ldr	r2, .L243+40
	cmp	r3, r2
	beq	.L118
	b	.L52
.L53:
	ldr	r3, .L243+148
	ldrh	r3, [r3, #0]
	str	r3, [fp, #-252]
	ldr	r2, [fp, #-260]
	ldr	r3, [fp, #-252]
	eor	r3, r2, r3
	and	r3, r3, #7
	cmp	r3, #0
	beq	.L138
	ldr	r3, .L243+44
	mov	r2, #1
	str	r2, [r3, #0]
.L138:
	ldr	r3, .L243+148
	ldr	r2, [fp, #-260]
	and	r2, r2, #255
	strb	r2, [r3, #0]
	b	.L139
.L54:
	ldr	r1, .L243+48
	ldr	r3, .L243+48
	ldrb	r3, [r3, #0]	@ zero_extendqisi2
	mov	r2, r3
	and	r2, r2, #7
	ldr	r3, [fp, #-260]
	and	r3, r3, #255
	and	r3, r3, #248
	orr	r3, r2, r3
	and	r3, r3, #255
	strb	r3, [r1, #0]
	b	.L139
.L56:
	ldr	r3, .L243+148
	add	r3, r3, #41
	ldrb	r3, [r3, #0]	@ zero_extendqisi2
	mov	r3, r3, asl #8
	ldr	r2, [fp, #-260]
	orr	r3, r2, r3
	str	r3, [fp, #-260]
	ldr	r3, .L243+52
	ldrh	r3, [r3, #0]
	mov	r3, r3, asl #16
	ldr	r2, [fp, #-260]
	orr	r3, r2, r3
	str	r3, [fp, #-260]
	ldr	r3, [fp, #-260]
	mov	r3, r3, asl #4
	mov	r2, r3, asr #4
	ldr	r3, .L243+56
	str	r2, [r3, #0]
	ldr	r3, .L243+60
	ldr	r2, [fp, #-260]
	str	r2, [r3, #0]
	b	.L139
.L57:
	ldr	r3, [fp, #-260]
	mov	r2, r3, asl #8
	ldr	r3, .L243+60
	ldrb	r3, [r3, #0]	@ zero_extendqisi2
	orr	r3, r2, r3
	str	r3, [fp, #-260]
	ldr	r3, .L243+52
	ldrh	r3, [r3, #0]
	mov	r3, r3, asl #16
	ldr	r2, [fp, #-260]
	orr	r3, r2, r3
	str	r3, [fp, #-260]
	ldr	r3, [fp, #-260]
	mov	r3, r3, asl #4
	mov	r2, r3, asr #4
	ldr	r3, .L243+56
	str	r2, [r3, #0]
	ldr	r3, .L243+60
	ldr	r2, [fp, #-260]
	str	r2, [r3, #0]
	b	.L139
.L58:
	ldr	r3, .L243+148
	add	r3, r3, #43
	ldrb	r3, [r3, #0]	@ zero_extendqisi2
	mov	r3, r3, asl #8
	ldr	r2, [fp, #-260]
	orr	r3, r2, r3
	str	r3, [fp, #-260]
	ldr	r3, [fp, #-260]
	mov	r2, r3, asl #16
	ldr	r3, .L243+60
	ldrh	r3, [r3, #0]
	orr	r3, r2, r3
	str	r3, [fp, #-260]
	ldr	r3, [fp, #-260]
	mov	r3, r3, asl #4
	mov	r2, r3, asr #4
	ldr	r3, .L243+56
	str	r2, [r3, #0]
	ldr	r3, .L243+60
	ldr	r2, [fp, #-260]
	str	r2, [r3, #0]
	b	.L139
.L59:
	ldr	r3, [fp, #-260]
	mov	r2, r3, asl #8
	ldr	r3, .L243+52
	ldrb	r3, [r3, #0]	@ zero_extendqisi2
	orr	r3, r2, r3
	str	r3, [fp, #-260]
	ldr	r3, [fp, #-260]
	mov	r2, r3, asl #16
	ldr	r3, .L243+60
	ldrh	r3, [r3, #0]
	orr	r3, r2, r3
	str	r3, [fp, #-260]
	ldr	r3, [fp, #-260]
	mov	r3, r3, asl #4
	mov	r2, r3, asr #4
	ldr	r3, .L243+56
	str	r2, [r3, #0]
	ldr	r3, .L243+60
	ldr	r2, [fp, #-260]
	str	r2, [r3, #0]
	b	.L139
.L228:
	ldr	r3, .L243+148
	add	r3, r3, #45
	ldrb	r3, [r3, #0]	@ zero_extendqisi2
	mov	r3, r3, asl #8
	ldr	r2, [fp, #-260]
	orr	r3, r2, r3
	str	r3, [fp, #-260]
	ldr	r3, .L243+64
	ldrh	r3, [r3, #0]
	mov	r3, r3, asl #16
	ldr	r2, [fp, #-260]
	orr	r3, r2, r3
	str	r3, [fp, #-260]
	ldr	r3, [fp, #-260]
	mov	r3, r3, asl #4
	mov	r2, r3, asr #4
	ldr	r3, .L243+68
	str	r2, [r3, #0]
	ldr	r3, .L243+72
	ldr	r2, [fp, #-260]
	str	r2, [r3, #0]
	b	.L139
.L61:
	ldr	r3, [fp, #-260]
	mov	r2, r3, asl #8
	ldr	r3, .L243+72
	ldrb	r3, [r3, #0]	@ zero_extendqisi2
	orr	r3, r2, r3
	str	r3, [fp, #-260]
	ldr	r3, .L243+64
	ldrh	r3, [r3, #0]
	mov	r3, r3, asl #16
	ldr	r2, [fp, #-260]
	orr	r3, r2, r3
	str	r3, [fp, #-260]
	ldr	r3, [fp, #-260]
	mov	r3, r3, asl #4
	mov	r2, r3, asr #4
	ldr	r3, .L243+68
	str	r2, [r3, #0]
	ldr	r3, .L243+72
	ldr	r2, [fp, #-260]
	str	r2, [r3, #0]
	b	.L139
.L62:
	ldr	r3, .L243+148
	add	r3, r3, #47
	ldrb	r3, [r3, #0]	@ zero_extendqisi2
	mov	r3, r3, asl #8
	ldr	r2, [fp, #-260]
	orr	r3, r2, r3
	str	r3, [fp, #-260]
	ldr	r3, [fp, #-260]
	mov	r2, r3, asl #16
	ldr	r3, .L243+72
	ldrh	r3, [r3, #0]
	orr	r3, r2, r3
	str	r3, [fp, #-260]
	ldr	r3, [fp, #-260]
	mov	r3, r3, asl #4
	mov	r2, r3, asr #4
	ldr	r3, .L243+68
	str	r2, [r3, #0]
	ldr	r3, .L243+72
	ldr	r2, [fp, #-260]
	str	r2, [r3, #0]
	b	.L139
.L63:
	ldr	r3, [fp, #-260]
	mov	r2, r3, asl #8
	ldr	r3, .L243+64
	ldrb	r3, [r3, #0]	@ zero_extendqisi2
	orr	r3, r2, r3
	str	r3, [fp, #-260]
	ldr	r3, [fp, #-260]
	mov	r2, r3, asl #16
	ldr	r3, .L243+72
	ldrh	r3, [r3, #0]
	orr	r3, r2, r3
	str	r3, [fp, #-260]
	ldr	r3, [fp, #-260]
	mov	r3, r3, asl #4
	mov	r2, r3, asr #4
	ldr	r3, .L243+68
	str	r2, [r3, #0]
	ldr	r3, .L243+72
	ldr	r2, [fp, #-260]
	str	r2, [r3, #0]
	b	.L139
.L64:
	ldr	r3, .L243+148
	add	r3, r3, #57
	ldrb	r3, [r3, #0]	@ zero_extendqisi2
	mov	r3, r3, asl #8
	ldr	r2, [fp, #-260]
	orr	r3, r2, r3
	str	r3, [fp, #-260]
	ldr	r3, .L243+76
	ldrh	r3, [r3, #0]
	mov	r3, r3, asl #16
	ldr	r2, [fp, #-260]
	orr	r3, r2, r3
	str	r3, [fp, #-260]
	ldr	r3, [fp, #-260]
	mov	r3, r3, asl #4
	mov	r2, r3, asr #4
	ldr	r3, .L243+56
	str	r2, [r3, #4]
	ldr	r3, .L243+80
	ldr	r2, [fp, #-260]
	str	r2, [r3, #0]
	b	.L139
.L65:
	ldr	r3, [fp, #-260]
	mov	r2, r3, asl #8
	ldr	r3, .L243+80
	ldrb	r3, [r3, #0]	@ zero_extendqisi2
	orr	r3, r2, r3
	str	r3, [fp, #-260]
	ldr	r3, .L243+76
	ldrh	r3, [r3, #0]
	mov	r3, r3, asl #16
	ldr	r2, [fp, #-260]
	orr	r3, r2, r3
	str	r3, [fp, #-260]
	ldr	r3, [fp, #-260]
	mov	r3, r3, asl #4
	mov	r2, r3, asr #4
	ldr	r3, .L243+56
	str	r2, [r3, #4]
	ldr	r3, .L243+80
	ldr	r2, [fp, #-260]
	str	r2, [r3, #0]
	b	.L139
.L66:
	ldr	r3, .L243+148
	add	r3, r3, #59
	ldrb	r3, [r3, #0]	@ zero_extendqisi2
	mov	r3, r3, asl #8
	ldr	r2, [fp, #-260]
	orr	r3, r2, r3
	str	r3, [fp, #-260]
	ldr	r3, [fp, #-260]
	mov	r2, r3, asl #16
	ldr	r3, .L243+80
	ldrh	r3, [r3, #0]
	orr	r3, r2, r3
	str	r3, [fp, #-260]
	ldr	r3, [fp, #-260]
	mov	r3, r3, asl #4
	mov	r2, r3, asr #4
	ldr	r3, .L243+56
	str	r2, [r3, #4]
	ldr	r3, .L243+80
	ldr	r2, [fp, #-260]
	str	r2, [r3, #0]
	b	.L139
.L67:
	ldr	r3, [fp, #-260]
	mov	r2, r3, asl #8
	ldr	r3, .L243+76
	ldrb	r3, [r3, #0]	@ zero_extendqisi2
	orr	r3, r2, r3
	str	r3, [fp, #-260]
	ldr	r3, [fp, #-260]
	mov	r2, r3, asl #16
	ldr	r3, .L243+80
	ldrh	r3, [r3, #0]
	orr	r3, r2, r3
	str	r3, [fp, #-260]
	ldr	r3, [fp, #-260]
	mov	r3, r3, asl #4
	mov	r2, r3, asr #4
	ldr	r3, .L243+56
	str	r2, [r3, #4]
	ldr	r3, .L243+80
	ldr	r2, [fp, #-260]
	str	r2, [r3, #0]
	b	.L139
.L68:
	ldr	r3, .L243+148
	add	r3, r3, #61
	ldrb	r3, [r3, #0]	@ zero_extendqisi2
	mov	r3, r3, asl #8
	ldr	r2, [fp, #-260]
	orr	r3, r2, r3
	str	r3, [fp, #-260]
	ldr	r3, .L243+84
	ldrh	r3, [r3, #0]
	mov	r3, r3, asl #16
	ldr	r2, [fp, #-260]
	orr	r3, r2, r3
	str	r3, [fp, #-260]
	ldr	r3, [fp, #-260]
	mov	r3, r3, asl #4
	mov	r2, r3, asr #4
	ldr	r3, .L243+68
	str	r2, [r3, #4]
	ldr	r3, .L243+88
	ldr	r2, [fp, #-260]
	str	r2, [r3, #0]
	b	.L139
.L69:
	ldr	r3, [fp, #-260]
	mov	r2, r3, asl #8
	ldr	r3, .L243+88
	ldrb	r3, [r3, #0]	@ zero_extendqisi2
	orr	r3, r2, r3
	str	r3, [fp, #-260]
	ldr	r3, .L243+84
	ldrh	r3, [r3, #0]
	mov	r3, r3, asl #16
	ldr	r2, [fp, #-260]
	orr	r3, r2, r3
	str	r3, [fp, #-260]
	ldr	r3, [fp, #-260]
	mov	r3, r3, asl #4
	mov	r2, r3, asr #4
	ldr	r3, .L243+68
	str	r2, [r3, #4]
	ldr	r3, .L243+88
	ldr	r2, [fp, #-260]
	str	r2, [r3, #0]
	b	.L139
.L70:
	ldr	r3, .L243+148
	add	r3, r3, #63
	ldrb	r3, [r3, #0]	@ zero_extendqisi2
	mov	r3, r3, asl #8
	ldr	r2, [fp, #-260]
	orr	r3, r2, r3
	str	r3, [fp, #-260]
	ldr	r3, [fp, #-260]
	mov	r2, r3, asl #16
	ldr	r3, .L243+88
	ldrh	r3, [r3, #0]
	orr	r3, r2, r3
	str	r3, [fp, #-260]
	ldr	r3, [fp, #-260]
	mov	r3, r3, asl #4
	mov	r2, r3, asr #4
	ldr	r3, .L243+68
	str	r2, [r3, #4]
	ldr	r3, .L243+88
	ldr	r2, [fp, #-260]
	str	r2, [r3, #0]
	b	.L139
.L71:
	ldr	r3, [fp, #-260]
	mov	r2, r3, asl #8
	ldr	r3, .L243+84
	ldrb	r3, [r3, #0]	@ zero_extendqisi2
	orr	r3, r2, r3
	str	r3, [fp, #-260]
	ldr	r3, [fp, #-260]
	mov	r2, r3, asl #16
	ldr	r3, .L243+88
	ldrh	r3, [r3, #0]
	orr	r3, r2, r3
	str	r3, [fp, #-260]
	ldr	r3, [fp, #-260]
	mov	r3, r3, asl #4
	mov	r2, r3, asr #4
	ldr	r3, .L243+68
	str	r2, [r3, #4]
	ldr	r3, .L243+88
	ldr	r2, [fp, #-260]
	str	r2, [r3, #0]
	b	.L139
.L72:
	ldr	r3, .L243+148
	add	r3, r3, #97
	ldrb	r3, [r3, #0]	@ zero_extendqisi2
	mov	r3, r3, asl #8
	ldr	r2, [fp, #-260]
	orr	r3, r2, r3
	str	r3, [fp, #-260]
	ldr	r3, [fp, #-260]
	mov	r3, r3, lsr #4
	and	r3, r3, #7
	mov	r3, r3, asl #1
	str	r3, [fp, #-248]
	ldr	r3, [fp, #-260]
	and	r2, r3, #7
	ldr	r3, .L243+160
	str	r2, [r3, #64]
	ldr	r3, [fp, #-260]
	mov	r3, r3, lsr #3
	and	r2, r3, #1
	ldr	r3, .L243+160
	str	r2, [r3, #52]
	ldr	r3, [fp, #-260]
	cmp	r3, #8
	moveq	r2, #0
	movne	r2, #1
	ldr	r3, .L243+160
	str	r2, [r3, #48]
	ldr	r3, .L243+160
	ldr	r2, [fp, #-248]
	str	r2, [r3, #56]
	ldr	r3, .L243+160
	ldr	r2, [fp, #-248]
	str	r2, [r3, #60]
	ldr	r3, .L243+140
	mov	r2, #1
	str	r2, [r3, #0]
	ldr	r3, .L243+92
	ldr	r2, [fp, #-260]
	mov	r2, r2, asl #16
	mov	r2, r2, lsr #16
	strh	r2, [r3, #0]	@ movhi
	b	.L139
.L229:
	ldr	r3, .L243+148
	add	r3, r3, #97
	ldrb	r3, [r3, #0]	@ zero_extendqisi2
	mov	r3, r3, asl #8
	ldr	r2, [fp, #-260]
	orr	r3, r2, r3
	str	r3, [fp, #-260]
	ldr	r3, [fp, #-260]
	mov	r3, r3, lsr #4
	and	r3, r3, #7
	mov	r3, r3, asl #1
	str	r3, [fp, #-244]
	ldr	r3, [fp, #-260]
	and	r2, r3, #7
	ldr	r3, .L243+160
	str	r2, [r3, #64]
	ldr	r3, [fp, #-260]
	mov	r3, r3, lsr #3
	and	r2, r3, #1
	ldr	r3, .L243+160
	str	r2, [r3, #52]
	ldr	r3, [fp, #-260]
	cmp	r3, #8
	moveq	r2, #0
	movne	r2, #1
	ldr	r3, .L243+160
	str	r2, [r3, #48]
	ldr	r3, .L243+160
	ldr	r2, [fp, #-244]
	str	r2, [r3, #56]
	ldr	r3, .L243+160
	ldr	r2, [fp, #-244]
	str	r2, [r3, #60]
	ldr	r3, .L243+140
	mov	r2, #1
	str	r2, [r3, #0]
	ldr	r3, .L243+92
	ldr	r2, [fp, #-260]
	mov	r2, r2, asl #16
	mov	r2, r2, lsr #16
	strh	r2, [r3, #0]	@ movhi
	b	.L139
.L74:
	ldr	r3, .L243+148
	add	r3, r3, #99
	ldrb	r3, [r3, #0]	@ zero_extendqisi2
	mov	r3, r3, asl #8
	ldr	r2, [fp, #-260]
	orr	r3, r2, r3
	str	r3, [fp, #-260]
	ldr	r3, [fp, #-260]
	mov	r3, r3, lsr #12
	and	r3, r3, #15
	str	r3, [fp, #-240]
	ldr	r3, [fp, #-260]
	mov	r3, r3, lsr #8
	and	r3, r3, #7
	mov	r3, r3, asl #2
	str	r3, [fp, #-236]
	ldr	r3, [fp, #-260]
	and	r3, r3, #63
	rsb	r2, r3, #64
	ldr	r3, .L243+160
	str	r2, [r3, #72]
	ldr	r2, .L243+128
	ldr	r3, [fp, #-260]
	mov	r3, r3, lsr #6
	and	r3, r3, #3
	mov	r3, r3, asl #3
	add	r2, r2, r3
	ldr	r3, .L243+160
	str	r2, [r3, #104]
	ldr	r3, [fp, #-260]
	mov	r3, r3, lsr #11
	and	r2, r3, #1
	ldr	r3, .L243+160
	str	r2, [r3, #28]
	ldr	r3, .L243+160
	ldr	r2, [fp, #-240]
	str	r2, [r3, #20]
	ldr	r3, .L243+160
	ldr	r2, [fp, #-240]
	str	r2, [r3, #24]
	ldr	r3, .L243+160
	ldr	r2, [fp, #-236]
	str	r2, [r3, #44]
	ldr	r3, .L243+160
	ldr	r2, [fp, #-236]
	str	r2, [r3, #40]
	ldr	r3, [fp, #-236]
	cmp	r3, #0
	moveq	r2, #0
	movne	r2, #1
	ldr	r3, .L243+160
	str	r2, [r3, #32]
	ldr	r3, .L243+160
	ldr	r2, [fp, #-240]
	str	r2, [r3, #24]
	ldr	r3, .L243+140
	mov	r2, #1
	str	r2, [r3, #0]
	ldr	r3, .L243+96
	ldr	r2, [fp, #-260]
	mov	r2, r2, asl #16
	mov	r2, r2, lsr #16
	strh	r2, [r3, #0]	@ movhi
	b	.L139
.L75:
	ldr	r3, [fp, #-260]
	mov	r2, r3, asl #8
	ldr	r3, .L243+96
	ldrb	r3, [r3, #0]	@ zero_extendqisi2
	orr	r3, r2, r3
	str	r3, [fp, #-260]
	ldr	r3, [fp, #-260]
	mov	r3, r3, lsr #12
	and	r3, r3, #15
	str	r3, [fp, #-232]
	ldr	r3, [fp, #-260]
	mov	r3, r3, lsr #8
	and	r3, r3, #7
	mov	r3, r3, asl #2
	str	r3, [fp, #-228]
	ldr	r3, [fp, #-260]
	and	r3, r3, #63
	rsb	r2, r3, #64
	ldr	r3, .L243+160
	str	r2, [r3, #72]
	ldr	r2, .L243+128
	ldr	r3, [fp, #-260]
	mov	r3, r3, lsr #6
	and	r3, r3, #3
	mov	r3, r3, asl #3
	add	r2, r2, r3
	ldr	r3, .L243+160
	str	r2, [r3, #104]
	ldr	r3, [fp, #-260]
	mov	r3, r3, lsr #11
	and	r2, r3, #1
	ldr	r3, .L243+160
	str	r2, [r3, #28]
	ldr	r3, .L243+160
	ldr	r2, [fp, #-232]
	str	r2, [r3, #20]
	ldr	r3, .L243+160
	ldr	r2, [fp, #-232]
	str	r2, [r3, #24]
	ldr	r3, .L243+160
	ldr	r2, [fp, #-228]
	str	r2, [r3, #44]
	ldr	r3, .L243+160
	ldr	r2, [fp, #-228]
	str	r2, [r3, #40]
	ldr	r3, [fp, #-228]
	cmp	r3, #0
	moveq	r2, #0
	movne	r2, #1
	ldr	r3, .L243+160
	str	r2, [r3, #32]
	ldr	r3, .L243+160
	ldr	r2, [fp, #-232]
	str	r2, [r3, #24]
	ldr	r3, .L243+140
	mov	r2, #1
	str	r2, [r3, #0]
	ldr	r3, .L243+96
	ldr	r2, [fp, #-260]
	mov	r2, r2, asl #16
	mov	r2, r2, lsr #16
	strh	r2, [r3, #0]	@ movhi
	b	.L139
.L76:
	ldr	r3, .L243+148
	add	r3, r3, #101
	ldrb	r3, [r3, #0]	@ zero_extendqisi2
	mov	r3, r3, asl #8
	ldr	r2, [fp, #-260]
	orr	r3, r2, r3
	str	r3, [fp, #-260]
	ldr	r3, [fp, #-260]
	mov	r3, r3, asl #21
	mov	r3, r3, lsr #21
	str	r3, [fp, #-224]
	ldr	r3, .L243+160
	ldr	r2, [fp, #-224]
	str	r2, [r3, #0]
	ldr	r3, [fp, #-224]
	rsb	r3, r3, #2048
	mov	r0, r3
	bl	__aeabi_ui2d
	mov	r3, r0
	mov	r4, r1
	mov	r0, #0
	mov	r1, #1090519040
	mov	r2, r3
	mov	r3, r4
	bl	__aeabi_ddiv
	mov	r3, r0
	mov	r4, r1
	mov	r0, r3
	mov	r1, r4
	mov	r2, #0
	mov	r3, #1073741824
	add	r3, r3, #2097152
	bl	__aeabi_dmul
	mov	r3, r0
	mov	r4, r1
	mov	r5, r3
	mov	r6, r4
	ldr	r3, .L243+136
	ldr	r3, [r3, #0]
	mov	r0, r3
	bl	__aeabi_ui2d
	mov	r3, r0
	mov	r4, r1
	mov	r0, r5
	mov	r1, r6
	mov	r2, r3
	mov	r3, r4
	bl	__aeabi_ddiv
	mov	r3, r0
	mov	r4, r1
	mov	r0, r3
	mov	r1, r4
	mov	r2, #0
	mov	r3, #1073741824
	add	r3, r3, #15728640
	bl	__aeabi_dmul
	mov	r3, r0
	mov	r4, r1
	mov	r0, r3
	mov	r1, r4
	bl	__aeabi_d2uiz
	mov	r2, r0
	ldr	r3, .L243+160
	str	r2, [r3, #4]
	ldr	r3, [fp, #-260]
	mov	r3, r3, lsr #14
	and	r2, r3, #1
	ldr	r3, .L243+160
	str	r2, [r3, #68]
	ldr	r3, [fp, #-260]
	and	r3, r3, #32768
	cmp	r3, #0
	beq	.L140
	ldr	r3, .L243+160
	mov	r2, #1
	str	r2, [r3, #96]
	ldr	r3, .L243+160
	ldr	r3, [r3, #8]
	sub	r3, r3, #5440
	sub	r3, r3, #21
	ldr	r2, .L243+160
	str	r3, [r2, #8]
	ldr	r3, .L243+160
	ldr	r2, [r3, #44]
	ldr	r3, .L243+160
	str	r2, [r3, #40]
	ldr	r3, .L243+160
	ldr	r2, [r3, #20]
	ldr	r3, .L243+160
	str	r2, [r3, #24]
.L140:
	ldr	r3, .L243+140
	mov	r2, #1
	str	r2, [r3, #0]
	ldr	r3, .L243+100
	ldr	r2, [fp, #-260]
	mov	r2, r2, asl #16
	mov	r2, r2, lsr #16
	strh	r2, [r3, #0]	@ movhi
	b	.L139
.L77:
	ldr	r3, [fp, #-260]
	mov	r2, r3, asl #8
	ldr	r3, .L243+100
	ldrb	r3, [r3, #0]	@ zero_extendqisi2
	orr	r3, r2, r3
	str	r3, [fp, #-260]
	ldr	r3, [fp, #-260]
	mov	r3, r3, asl #21
	mov	r3, r3, lsr #21
	str	r3, [fp, #-220]
	ldr	r3, .L243+160
	ldr	r2, [fp, #-220]
	str	r2, [r3, #0]
	ldr	r3, [fp, #-220]
	rsb	r3, r3, #2048
	mov	r0, r3
	bl	__aeabi_ui2d
	mov	r3, r0
	mov	r4, r1
	mov	r0, #0
	mov	r1, #1090519040
	mov	r2, r3
	mov	r3, r4
	bl	__aeabi_ddiv
	mov	r3, r0
	mov	r4, r1
	mov	r0, r3
	mov	r1, r4
	mov	r2, #0
	mov	r3, #1073741824
	add	r3, r3, #2097152
	bl	__aeabi_dmul
	mov	r3, r0
	mov	r4, r1
	mov	r5, r3
	mov	r6, r4
	ldr	r3, .L243+136
	ldr	r3, [r3, #0]
	mov	r0, r3
	bl	__aeabi_ui2d
	mov	r3, r0
	mov	r4, r1
	mov	r0, r5
	mov	r1, r6
	mov	r2, r3
	mov	r3, r4
	bl	__aeabi_ddiv
	mov	r3, r0
	mov	r4, r1
	mov	r0, r3
	mov	r1, r4
	mov	r2, #0
	mov	r3, #1073741824
	add	r3, r3, #15728640
	bl	__aeabi_dmul
	mov	r3, r0
	mov	r4, r1
	mov	r0, r3
	mov	r1, r4
	bl	__aeabi_d2uiz
	mov	r2, r0
	ldr	r3, .L243+160
	str	r2, [r3, #4]
	ldr	r3, [fp, #-260]
	mov	r3, r3, lsr #14
	and	r2, r3, #1
	ldr	r3, .L243+160
	str	r2, [r3, #68]
	ldr	r3, [fp, #-260]
	and	r3, r3, #32768
	cmp	r3, #0
	beq	.L141
	ldr	r3, .L243+160
	mov	r2, #1
	str	r2, [r3, #96]
	ldr	r3, .L243+160
	ldr	r3, [r3, #8]
	sub	r3, r3, #5440
	sub	r3, r3, #21
	ldr	r2, .L243+160
	str	r3, [r2, #8]
	ldr	r3, .L243+160
	ldr	r2, [r3, #44]
	ldr	r3, .L243+160
	str	r2, [r3, #40]
	ldr	r3, .L243+160
	ldr	r2, [r3, #20]
	ldr	r3, .L243+160
	str	r2, [r3, #24]
.L141:
	ldr	r3, .L243+140
	mov	r2, #1
	str	r2, [r3, #0]
	ldr	r3, .L243+100
	ldr	r2, [fp, #-260]
	mov	r2, r2, asl #16
	mov	r2, r2, lsr #16
	strh	r2, [r3, #0]	@ movhi
	b	.L139
.L78:
	ldr	r3, .L243+148
	add	r3, r3, #105
	ldrb	r3, [r3, #0]	@ zero_extendqisi2
	mov	r3, r3, asl #8
	ldr	r2, [fp, #-260]
	orr	r3, r2, r3
	str	r3, [fp, #-260]
	ldr	r3, [fp, #-260]
	mov	r3, r3, lsr #12
	and	r3, r3, #15
	str	r3, [fp, #-216]
	ldr	r3, [fp, #-260]
	mov	r3, r3, lsr #8
	and	r3, r3, #7
	mov	r3, r3, asl #2
	str	r3, [fp, #-212]
	ldr	r3, [fp, #-260]
	and	r3, r3, #63
	rsb	r2, r3, #64
	ldr	r3, .L243+160
	str	r2, [r3, #180]
	ldr	r2, .L243+128
	ldr	r3, [fp, #-260]
	mov	r3, r3, lsr #6
	and	r3, r3, #3
	mov	r3, r3, asl #3
	add	r2, r2, r3
	ldr	r3, .L243+160
	str	r2, [r3, #212]
	ldr	r3, [fp, #-260]
	mov	r3, r3, lsr #11
	and	r2, r3, #1
	ldr	r3, .L243+160
	str	r2, [r3, #136]
	ldr	r3, .L243+160
	ldr	r2, [fp, #-216]
	str	r2, [r3, #128]
	ldr	r3, .L243+160
	ldr	r2, [fp, #-216]
	str	r2, [r3, #132]
	ldr	r3, .L243+160
	ldr	r2, [fp, #-212]
	str	r2, [r3, #152]
	ldr	r3, .L243+160
	ldr	r2, [fp, #-212]
	str	r2, [r3, #148]
	ldr	r3, [fp, #-212]
	cmp	r3, #0
	moveq	r2, #0
	movne	r2, #1
	ldr	r3, .L243+160
	str	r2, [r3, #140]
	ldr	r3, .L243+160
	ldr	r2, [fp, #-216]
	str	r2, [r3, #132]
	ldr	r3, .L243+140
	mov	r2, #1
	str	r2, [r3, #0]
	ldr	r3, .L243+104
	ldr	r2, [fp, #-260]
	mov	r2, r2, asl #16
	mov	r2, r2, lsr #16
	strh	r2, [r3, #0]	@ movhi
	b	.L139
.L79:
	ldr	r3, [fp, #-260]
	mov	r2, r3, asl #8
	ldr	r3, .L243+104
	ldrb	r3, [r3, #0]	@ zero_extendqisi2
	orr	r3, r2, r3
	str	r3, [fp, #-260]
	ldr	r3, [fp, #-260]
	mov	r3, r3, lsr #12
	and	r3, r3, #15
	str	r3, [fp, #-208]
	ldr	r3, [fp, #-260]
	mov	r3, r3, lsr #8
	and	r3, r3, #7
	mov	r3, r3, asl #2
	str	r3, [fp, #-204]
	ldr	r3, [fp, #-260]
	and	r3, r3, #63
	rsb	r2, r3, #64
	ldr	r3, .L243+160
	str	r2, [r3, #180]
	ldr	r2, .L243+128
	ldr	r3, [fp, #-260]
	mov	r3, r3, lsr #6
	and	r3, r3, #3
	mov	r3, r3, asl #3
	add	r2, r2, r3
	ldr	r3, .L243+160
	str	r2, [r3, #212]
	ldr	r3, [fp, #-260]
	mov	r3, r3, lsr #11
	and	r2, r3, #1
	ldr	r3, .L243+160
	str	r2, [r3, #136]
	ldr	r3, .L243+160
	ldr	r2, [fp, #-208]
	str	r2, [r3, #128]
	ldr	r3, .L243+160
	ldr	r2, [fp, #-208]
	str	r2, [r3, #132]
	ldr	r3, .L243+160
	ldr	r2, [fp, #-204]
	str	r2, [r3, #152]
	ldr	r3, .L243+160
	ldr	r2, [fp, #-204]
	str	r2, [r3, #148]
	ldr	r3, [fp, #-204]
	cmp	r3, #0
	moveq	r2, #0
	movne	r2, #1
	ldr	r3, .L243+160
	str	r2, [r3, #140]
	ldr	r3, .L243+160
	ldr	r2, [fp, #-208]
	str	r2, [r3, #132]
	ldr	r3, .L243+140
	mov	r2, #1
	str	r2, [r3, #0]
	ldr	r3, .L243+104
	ldr	r2, [fp, #-260]
	mov	r2, r2, asl #16
	mov	r2, r2, lsr #16
	strh	r2, [r3, #0]	@ movhi
	b	.L139
.L244:
	.align	2
.L243:
	.word	257
	.word	259
	.word	261
	.word	263
	.word	269
	.word	267
	.word	265
	.word	514
	.word	271
	.word	515
	.word	769
	.word	oam_update
	.word	io_registers+4
	.word	io_registers+42
	.word	affine_reference_x
	.word	io_registers+40
	.word	io_registers+46
	.word	affine_reference_y
	.word	io_registers+44
	.word	io_registers+58
	.word	io_registers+56
	.word	io_registers+62
	.word	io_registers+60
	.word	io_registers+96
	.word	io_registers+98
	.word	io_registers+100
	.word	io_registers+104
	.word	io_registers+108
	.word	io_registers+112
	.word	gbc_sound_wave_volume
	.word	io_registers+114
	.word	io_registers+116
	.word	square_pattern_duty
	.word	io_registers+120
	.word	sound_frequency
	.word	gbc_sound_update
	.word	io_registers+124
	.word	io_registers
	.word	gbc_sound_master_volume_right
	.word	gbc_sound_master_volume_left
	.word	gbc_sound_channel
	.word	io_registers+128
.L80:
	ldr	r3, .L243+148
	add	r3, r3, #109
	ldrb	r3, [r3, #0]	@ zero_extendqisi2
	mov	r3, r3, asl #8
	ldr	r2, [fp, #-260]
	orr	r3, r2, r3
	str	r3, [fp, #-260]
	ldr	r3, [fp, #-260]
	mov	r3, r3, asl #21
	mov	r3, r3, lsr #21
	str	r3, [fp, #-200]
	ldr	r3, .L243+160
	ldr	r2, [fp, #-200]
	str	r2, [r3, #108]
	ldr	r3, [fp, #-200]
	rsb	r3, r3, #2048
	mov	r0, r3
	bl	__aeabi_ui2d
	mov	r3, r0
	mov	r4, r1
	mov	r0, #0
	mov	r1, #1090519040
	mov	r2, r3
	mov	r3, r4
	bl	__aeabi_ddiv
	mov	r3, r0
	mov	r4, r1
	mov	r0, r3
	mov	r1, r4
	mov	r2, #0
	mov	r3, #1073741824
	add	r3, r3, #2097152
	bl	__aeabi_dmul
	mov	r3, r0
	mov	r4, r1
	mov	r5, r3
	mov	r6, r4
	ldr	r3, .L243+136
	ldr	r3, [r3, #0]
	mov	r0, r3
	bl	__aeabi_ui2d
	mov	r3, r0
	mov	r4, r1
	mov	r0, r5
	mov	r1, r6
	mov	r2, r3
	mov	r3, r4
	bl	__aeabi_ddiv
	mov	r3, r0
	mov	r4, r1
	mov	r0, r3
	mov	r1, r4
	mov	r2, #0
	mov	r3, #1073741824
	add	r3, r3, #15728640
	bl	__aeabi_dmul
	mov	r3, r0
	mov	r4, r1
	mov	r0, r3
	mov	r1, r4
	bl	__aeabi_d2uiz
	mov	r2, r0
	ldr	r3, .L243+160
	str	r2, [r3, #112]
	ldr	r3, [fp, #-260]
	mov	r3, r3, lsr #14
	and	r2, r3, #1
	ldr	r3, .L243+160
	str	r2, [r3, #176]
	ldr	r3, [fp, #-260]
	and	r3, r3, #32768
	cmp	r3, #0
	beq	.L142
	ldr	r3, .L243+160
	mov	r2, #1
	str	r2, [r3, #204]
	ldr	r3, .L243+160
	ldr	r3, [r3, #116]
	sub	r3, r3, #5440
	sub	r3, r3, #21
	ldr	r2, .L243+160
	str	r3, [r2, #116]
	ldr	r3, .L243+160
	ldr	r2, [r3, #152]
	ldr	r3, .L243+160
	str	r2, [r3, #148]
	ldr	r3, .L243+160
	ldr	r2, [r3, #128]
	ldr	r3, .L243+160
	str	r2, [r3, #132]
.L142:
	ldr	r3, .L243+140
	mov	r2, #1
	str	r2, [r3, #0]
	ldr	r3, .L243+108
	ldr	r2, [fp, #-260]
	mov	r2, r2, asl #16
	mov	r2, r2, lsr #16
	strh	r2, [r3, #0]	@ movhi
	b	.L139
.L81:
	ldr	r3, [fp, #-260]
	mov	r2, r3, asl #8
	ldr	r3, .L243+108
	ldrb	r3, [r3, #0]	@ zero_extendqisi2
	orr	r3, r2, r3
	str	r3, [fp, #-260]
	ldr	r3, [fp, #-260]
	mov	r3, r3, asl #21
	mov	r3, r3, lsr #21
	str	r3, [fp, #-196]
	ldr	r3, .L243+160
	ldr	r2, [fp, #-196]
	str	r2, [r3, #108]
	ldr	r3, [fp, #-196]
	rsb	r3, r3, #2048
	mov	r0, r3
	bl	__aeabi_ui2d
	mov	r3, r0
	mov	r4, r1
	mov	r0, #0
	mov	r1, #1090519040
	mov	r2, r3
	mov	r3, r4
	bl	__aeabi_ddiv
	mov	r3, r0
	mov	r4, r1
	mov	r0, r3
	mov	r1, r4
	mov	r2, #0
	mov	r3, #1073741824
	add	r3, r3, #2097152
	bl	__aeabi_dmul
	mov	r3, r0
	mov	r4, r1
	mov	r5, r3
	mov	r6, r4
	ldr	r3, .L243+136
	ldr	r3, [r3, #0]
	mov	r0, r3
	bl	__aeabi_ui2d
	mov	r3, r0
	mov	r4, r1
	mov	r0, r5
	mov	r1, r6
	mov	r2, r3
	mov	r3, r4
	bl	__aeabi_ddiv
	mov	r3, r0
	mov	r4, r1
	mov	r0, r3
	mov	r1, r4
	mov	r2, #0
	mov	r3, #1073741824
	add	r3, r3, #15728640
	bl	__aeabi_dmul
	mov	r3, r0
	mov	r4, r1
	mov	r0, r3
	mov	r1, r4
	bl	__aeabi_d2uiz
	mov	r2, r0
	ldr	r3, .L243+160
	str	r2, [r3, #112]
	ldr	r3, [fp, #-260]
	mov	r3, r3, lsr #14
	and	r2, r3, #1
	ldr	r3, .L243+160
	str	r2, [r3, #176]
	ldr	r3, [fp, #-260]
	and	r3, r3, #32768
	cmp	r3, #0
	beq	.L143
	ldr	r3, .L243+160
	mov	r2, #1
	str	r2, [r3, #204]
	ldr	r3, .L243+160
	ldr	r3, [r3, #116]
	sub	r3, r3, #5440
	sub	r3, r3, #21
	ldr	r2, .L243+160
	str	r3, [r2, #116]
	ldr	r3, .L243+160
	ldr	r2, [r3, #152]
	ldr	r3, .L243+160
	str	r2, [r3, #148]
	ldr	r3, .L243+160
	ldr	r2, [r3, #128]
	ldr	r3, .L243+160
	str	r2, [r3, #132]
.L143:
	ldr	r3, .L243+140
	mov	r2, #1
	str	r2, [r3, #0]
	ldr	r3, .L243+108
	ldr	r2, [fp, #-260]
	mov	r2, r2, asl #16
	mov	r2, r2, lsr #16
	strh	r2, [r3, #0]	@ movhi
	b	.L139
.L82:
	ldr	r3, .L243+148
	add	r3, r3, #113
	ldrb	r3, [r3, #0]	@ zero_extendqisi2
	mov	r3, r3, asl #8
	ldr	r2, [fp, #-260]
	orr	r3, r2, r3
	str	r3, [fp, #-260]
	ldr	r3, [fp, #-260]
	mov	r3, r3, lsr #5
	and	r2, r3, #1
	ldr	r3, .L243+160
	str	r2, [r3, #296]
	ldr	r3, [fp, #-260]
	mov	r3, r3, lsr #6
	and	r2, r3, #1
	ldr	r3, .L243+160
	str	r2, [r3, #300]
	ldr	r3, [fp, #-260]
	and	r3, r3, #128
	cmp	r3, #0
	beq	.L144
	ldr	r3, .L243+160
	mov	r2, #1
	str	r2, [r3, #316]
	b	.L145
.L144:
	ldr	r3, .L243+160
	mov	r2, #0
	str	r2, [r3, #316]
.L145:
	ldr	r3, .L243+140
	mov	r2, #1
	str	r2, [r3, #0]
	ldr	r3, .L243+112
	ldr	r2, [fp, #-260]
	mov	r2, r2, asl #16
	mov	r2, r2, lsr #16
	strh	r2, [r3, #0]	@ movhi
	b	.L139
.L83:
	ldr	r3, [fp, #-260]
	mov	r2, r3, asl #8
	ldr	r3, .L243+112
	ldrb	r3, [r3, #0]	@ zero_extendqisi2
	orr	r3, r2, r3
	str	r3, [fp, #-260]
	ldr	r3, [fp, #-260]
	mov	r3, r3, lsr #5
	and	r2, r3, #1
	ldr	r3, .L243+160
	str	r2, [r3, #296]
	ldr	r3, [fp, #-260]
	mov	r3, r3, lsr #6
	and	r2, r3, #1
	ldr	r3, .L243+160
	str	r2, [r3, #300]
	ldr	r3, [fp, #-260]
	and	r3, r3, #128
	cmp	r3, #0
	beq	.L146
	ldr	r3, .L243+160
	mov	r2, #1
	str	r2, [r3, #316]
	b	.L147
.L146:
	ldr	r3, .L243+160
	mov	r2, #0
	str	r2, [r3, #316]
.L147:
	ldr	r3, .L243+140
	mov	r2, #1
	str	r2, [r3, #0]
	ldr	r3, .L243+112
	ldr	r2, [fp, #-260]
	mov	r2, r2, asl #16
	mov	r2, r2, lsr #16
	strh	r2, [r3, #0]	@ movhi
	b	.L139
.L84:
	ldr	r3, .L243+148
	add	r3, r3, #115
	ldrb	r3, [r3, #0]	@ zero_extendqisi2
	mov	r3, r3, asl #8
	ldr	r2, [fp, #-260]
	orr	r3, r2, r3
	str	r3, [fp, #-260]
	ldr	r3, [fp, #-260]
	and	r3, r3, #255
	rsb	r2, r3, #256
	ldr	r3, .L243+160
	str	r2, [r3, #288]
	ldr	r3, [fp, #-260]
	mov	r3, r3, lsr #15
	and	r3, r3, #1
	and	r3, r3, #255
	cmp	r3, #0
	beq	.L148
	ldr	r3, .L243+160
	mov	r2, #12288
	str	r2, [r3, #304]
	b	.L149
.L148:
	ldr	r3, [fp, #-260]
	mov	r3, r3, lsr #13
	and	r2, r3, #3
	ldr	r3, .L243+116
	ldr	r2, [r3, r2, asl #2]
	ldr	r3, .L243+160
	str	r2, [r3, #304]
.L149:
	ldr	r3, .L243+140
	mov	r2, #1
	str	r2, [r3, #0]
	ldr	r3, .L243+120
	ldr	r2, [fp, #-260]
	mov	r2, r2, asl #16
	mov	r2, r2, lsr #16
	strh	r2, [r3, #0]	@ movhi
	b	.L139
.L85:
	ldr	r3, [fp, #-260]
	mov	r2, r3, asl #8
	ldr	r3, .L243+120
	ldrb	r3, [r3, #0]	@ zero_extendqisi2
	orr	r3, r2, r3
	str	r3, [fp, #-260]
	ldr	r3, [fp, #-260]
	and	r3, r3, #255
	rsb	r2, r3, #256
	ldr	r3, .L243+160
	str	r2, [r3, #288]
	ldr	r3, [fp, #-260]
	mov	r3, r3, lsr #15
	and	r3, r3, #1
	and	r3, r3, #255
	cmp	r3, #0
	beq	.L150
	ldr	r3, .L243+160
	mov	r2, #12288
	str	r2, [r3, #304]
	b	.L151
.L150:
	ldr	r3, [fp, #-260]
	mov	r3, r3, lsr #13
	and	r2, r3, #3
	ldr	r3, .L243+116
	ldr	r2, [r3, r2, asl #2]
	ldr	r3, .L243+160
	str	r2, [r3, #304]
.L151:
	ldr	r3, .L243+140
	mov	r2, #1
	str	r2, [r3, #0]
	ldr	r3, .L243+120
	ldr	r2, [fp, #-260]
	mov	r2, r2, asl #16
	mov	r2, r2, lsr #16
	strh	r2, [r3, #0]	@ movhi
	b	.L139
.L86:
	ldr	r3, .L243+148
	add	r3, r3, #117
	ldrb	r3, [r3, #0]	@ zero_extendqisi2
	mov	r3, r3, asl #8
	ldr	r2, [fp, #-260]
	orr	r3, r2, r3
	str	r3, [fp, #-260]
	ldr	r3, [fp, #-260]
	mov	r3, r3, asl #21
	mov	r3, r3, lsr #21
	str	r3, [fp, #-192]
	ldr	r3, .L243+160
	ldr	r2, [fp, #-192]
	str	r2, [r3, #216]
	ldr	r3, [fp, #-192]
	rsb	r3, r3, #2048
	mov	r0, r3
	bl	__aeabi_ui2d
	mov	r3, r0
	mov	r4, r1
	mov	r0, #0
	mov	r1, #1090519040
	add	r1, r1, #4194304
	mov	r2, r3
	mov	r3, r4
	bl	__aeabi_ddiv
	mov	r3, r0
	mov	r4, r1
	mov	r5, r3
	mov	r6, r4
	ldr	r3, .L243+136
	ldr	r3, [r3, #0]
	mov	r0, r3
	bl	__aeabi_ui2d
	mov	r3, r0
	mov	r4, r1
	mov	r0, r5
	mov	r1, r6
	mov	r2, r3
	mov	r3, r4
	bl	__aeabi_ddiv
	mov	r3, r0
	mov	r4, r1
	mov	r0, r3
	mov	r1, r4
	mov	r2, #0
	mov	r3, #1073741824
	add	r3, r3, #15728640
	bl	__aeabi_dmul
	mov	r3, r0
	mov	r4, r1
	mov	r0, r3
	mov	r1, r4
	bl	__aeabi_d2uiz
	mov	r2, r0
	ldr	r3, .L243+160
	str	r2, [r3, #220]
	ldr	r3, [fp, #-260]
	mov	r3, r3, lsr #14
	and	r2, r3, #1
	ldr	r3, .L243+160
	str	r2, [r3, #284]
	ldr	r3, [fp, #-260]
	and	r3, r3, #32768
	cmp	r3, #0
	beq	.L152
	ldr	r3, .L243+160
	mov	r2, #0
	str	r2, [r3, #224]
	ldr	r3, .L243+160
	mov	r2, #1
	str	r2, [r3, #312]
.L152:
	ldr	r3, .L243+140
	mov	r2, #1
	str	r2, [r3, #0]
	ldr	r3, .L243+124
	ldr	r2, [fp, #-260]
	mov	r2, r2, asl #16
	mov	r2, r2, lsr #16
	strh	r2, [r3, #0]	@ movhi
	b	.L139
.L87:
	ldr	r3, [fp, #-260]
	mov	r2, r3, asl #8
	ldr	r3, .L243+124
	ldrb	r3, [r3, #0]	@ zero_extendqisi2
	orr	r3, r2, r3
	str	r3, [fp, #-260]
	ldr	r3, [fp, #-260]
	mov	r3, r3, asl #21
	mov	r3, r3, lsr #21
	str	r3, [fp, #-188]
	ldr	r3, .L243+160
	ldr	r2, [fp, #-188]
	str	r2, [r3, #216]
	ldr	r3, [fp, #-188]
	rsb	r3, r3, #2048
	mov	r0, r3
	bl	__aeabi_ui2d
	mov	r3, r0
	mov	r4, r1
	mov	r0, #0
	mov	r1, #1090519040
	add	r1, r1, #4194304
	mov	r2, r3
	mov	r3, r4
	bl	__aeabi_ddiv
	mov	r3, r0
	mov	r4, r1
	mov	r5, r3
	mov	r6, r4
	ldr	r3, .L243+136
	ldr	r3, [r3, #0]
	mov	r0, r3
	bl	__aeabi_ui2d
	mov	r3, r0
	mov	r4, r1
	mov	r0, r5
	mov	r1, r6
	mov	r2, r3
	mov	r3, r4
	bl	__aeabi_ddiv
	mov	r3, r0
	mov	r4, r1
	mov	r0, r3
	mov	r1, r4
	mov	r2, #0
	mov	r3, #1073741824
	add	r3, r3, #15728640
	bl	__aeabi_dmul
	mov	r3, r0
	mov	r4, r1
	mov	r0, r3
	mov	r1, r4
	bl	__aeabi_d2uiz
	mov	r2, r0
	ldr	r3, .L243+160
	str	r2, [r3, #220]
	ldr	r3, [fp, #-260]
	mov	r3, r3, lsr #14
	and	r2, r3, #1
	ldr	r3, .L243+160
	str	r2, [r3, #284]
	ldr	r3, [fp, #-260]
	and	r3, r3, #32768
	cmp	r3, #0
	beq	.L153
	ldr	r3, .L243+160
	mov	r2, #0
	str	r2, [r3, #224]
	ldr	r3, .L243+160
	mov	r2, #1
	str	r2, [r3, #312]
.L153:
	ldr	r3, .L243+140
	mov	r2, #1
	str	r2, [r3, #0]
	ldr	r3, .L243+124
	ldr	r2, [fp, #-260]
	mov	r2, r2, asl #16
	mov	r2, r2, lsr #16
	strh	r2, [r3, #0]	@ movhi
	b	.L139
.L88:
	ldr	r3, .L243+148
	add	r3, r3, #121
	ldrb	r3, [r3, #0]	@ zero_extendqisi2
	mov	r3, r3, asl #8
	ldr	r2, [fp, #-260]
	orr	r3, r2, r3
	str	r3, [fp, #-260]
	ldr	r3, [fp, #-260]
	mov	r3, r3, lsr #12
	and	r3, r3, #15
	str	r3, [fp, #-184]
	ldr	r3, [fp, #-260]
	mov	r3, r3, lsr #8
	and	r3, r3, #7
	mov	r3, r3, asl #2
	str	r3, [fp, #-180]
	ldr	r3, [fp, #-260]
	and	r3, r3, #63
	rsb	r2, r3, #64
	ldr	r3, .L243+160
	str	r2, [r3, #396]
	ldr	r2, .L243+128
	ldr	r3, [fp, #-260]
	mov	r3, r3, lsr #6
	and	r3, r3, #3
	mov	r3, r3, asl #3
	add	r2, r2, r3
	ldr	r3, .L243+160
	str	r2, [r3, #428]
	ldr	r3, [fp, #-260]
	mov	r3, r3, lsr #11
	and	r2, r3, #1
	ldr	r3, .L243+160
	str	r2, [r3, #352]
	ldr	r3, .L243+160
	ldr	r2, [fp, #-184]
	str	r2, [r3, #344]
	ldr	r3, .L243+160
	ldr	r2, [fp, #-184]
	str	r2, [r3, #348]
	ldr	r3, .L243+160
	ldr	r2, [fp, #-180]
	str	r2, [r3, #368]
	ldr	r3, .L243+160
	ldr	r2, [fp, #-180]
	str	r2, [r3, #364]
	ldr	r3, [fp, #-180]
	cmp	r3, #0
	moveq	r2, #0
	movne	r2, #1
	ldr	r3, .L243+160
	str	r2, [r3, #356]
	ldr	r3, .L243+160
	ldr	r2, [fp, #-184]
	str	r2, [r3, #348]
	ldr	r3, .L243+140
	mov	r2, #1
	str	r2, [r3, #0]
	ldr	r3, .L243+132
	ldr	r2, [fp, #-260]
	mov	r2, r2, asl #16
	mov	r2, r2, lsr #16
	strh	r2, [r3, #0]	@ movhi
	b	.L139
.L89:
	ldr	r3, [fp, #-260]
	mov	r2, r3, asl #8
	ldr	r3, .L243+132
	ldrb	r3, [r3, #0]	@ zero_extendqisi2
	orr	r3, r2, r3
	str	r3, [fp, #-260]
	ldr	r3, [fp, #-260]
	mov	r3, r3, lsr #12
	and	r3, r3, #15
	str	r3, [fp, #-176]
	ldr	r3, [fp, #-260]
	mov	r3, r3, lsr #8
	and	r3, r3, #7
	mov	r3, r3, asl #2
	str	r3, [fp, #-172]
	ldr	r3, [fp, #-260]
	and	r3, r3, #63
	rsb	r2, r3, #64
	ldr	r3, .L243+160
	str	r2, [r3, #396]
	ldr	r2, .L243+128
	ldr	r3, [fp, #-260]
	mov	r3, r3, lsr #6
	and	r3, r3, #3
	mov	r3, r3, asl #3
	add	r2, r2, r3
	ldr	r3, .L243+160
	str	r2, [r3, #428]
	ldr	r3, [fp, #-260]
	mov	r3, r3, lsr #11
	and	r2, r3, #1
	ldr	r3, .L243+160
	str	r2, [r3, #352]
	ldr	r3, .L243+160
	ldr	r2, [fp, #-176]
	str	r2, [r3, #344]
	ldr	r3, .L243+160
	ldr	r2, [fp, #-176]
	str	r2, [r3, #348]
	ldr	r3, .L243+160
	ldr	r2, [fp, #-172]
	str	r2, [r3, #368]
	ldr	r3, .L243+160
	ldr	r2, [fp, #-172]
	str	r2, [r3, #364]
	ldr	r3, [fp, #-172]
	cmp	r3, #0
	moveq	r2, #0
	movne	r2, #1
	ldr	r3, .L243+160
	str	r2, [r3, #356]
	ldr	r3, .L243+160
	ldr	r2, [fp, #-176]
	str	r2, [r3, #348]
	ldr	r3, .L243+140
	mov	r2, #1
	str	r2, [r3, #0]
	ldr	r3, .L243+132
	ldr	r2, [fp, #-260]
	mov	r2, r2, asl #16
	mov	r2, r2, lsr #16
	strh	r2, [r3, #0]	@ movhi
	b	.L139
.L90:
	ldr	r3, .L243+148
	add	r3, r3, #125
	ldrb	r3, [r3, #0]	@ zero_extendqisi2
	mov	r3, r3, asl #8
	ldr	r2, [fp, #-260]
	orr	r3, r2, r3
	str	r3, [fp, #-260]
	ldr	r3, [fp, #-260]
	and	r3, r3, #7
	str	r3, [fp, #-168]
	ldr	r3, [fp, #-260]
	mov	r3, r3, lsr #4
	and	r3, r3, #15
	str	r3, [fp, #-164]
	ldr	r3, [fp, #-168]
	cmp	r3, #0
	bne	.L154
	ldr	r3, [fp, #-164]
	add	r3, r3, #1
	mov	r2, #1
	mov	r3, r2, asl r3
	mov	r0, r3
	bl	__aeabi_i2d
	mov	r3, r0
	mov	r4, r1
	mov	r0, #0
	mov	r1, #1090519040
	add	r1, r1, #3145728
	mov	r2, r3
	mov	r3, r4
	bl	__aeabi_ddiv
	mov	r3, r0
	mov	r4, r1
	mov	r5, r3
	mov	r6, r4
	ldr	r3, .L243+136
	ldr	r3, [r3, #0]
	mov	r0, r3
	bl	__aeabi_ui2d
	mov	r3, r0
	mov	r4, r1
	mov	r0, r5
	mov	r1, r6
	mov	r2, r3
	mov	r3, r4
	bl	__aeabi_ddiv
	mov	r3, r0
	mov	r4, r1
	mov	r0, r3
	mov	r1, r4
	mov	r2, #0
	mov	r3, #1073741824
	add	r3, r3, #15728640
	bl	__aeabi_dmul
	mov	r3, r0
	mov	r4, r1
	mov	r0, r3
	mov	r1, r4
	bl	__aeabi_d2uiz
	mov	r2, r0
	ldr	r3, .L243+160
	str	r2, [r3, #328]
	b	.L155
.L154:
	ldr	r3, [fp, #-164]
	add	r3, r3, #1
	ldr	r2, [fp, #-168]
	mov	r3, r2, asl r3
	mov	r0, r3
	bl	__aeabi_ui2d
	mov	r3, r0
	mov	r4, r1
	mov	r0, #0
	mov	r1, #1090519040
	add	r1, r1, #2097152
	mov	r2, r3
	mov	r3, r4
	bl	__aeabi_ddiv
	mov	r3, r0
	mov	r4, r1
	mov	r5, r3
	mov	r6, r4
	ldr	r3, .L243+136
	ldr	r3, [r3, #0]
	mov	r0, r3
	bl	__aeabi_ui2d
	mov	r3, r0
	mov	r4, r1
	mov	r0, r5
	mov	r1, r6
	mov	r2, r3
	mov	r3, r4
	bl	__aeabi_ddiv
	mov	r3, r0
	mov	r4, r1
	mov	r0, r3
	mov	r1, r4
	mov	r2, #0
	mov	r3, #1073741824
	add	r3, r3, #15728640
	bl	__aeabi_dmul
	mov	r3, r0
	mov	r4, r1
	mov	r0, r3
	mov	r1, r4
	bl	__aeabi_d2uiz
	mov	r2, r0
	ldr	r3, .L243+160
	str	r2, [r3, #328]
.L155:
	ldr	r3, [fp, #-260]
	mov	r3, r3, lsr #3
	and	r2, r3, #1
	ldr	r3, .L243+160
	str	r2, [r3, #400]
	ldr	r3, [fp, #-260]
	mov	r3, r3, lsr #14
	and	r2, r3, #1
	ldr	r3, .L243+160
	str	r2, [r3, #392]
	ldr	r3, [fp, #-260]
	and	r3, r3, #32768
	cmp	r3, #0
	beq	.L156
	ldr	r3, .L243+160
	mov	r2, #0
	str	r2, [r3, #332]
	ldr	r3, .L243+160
	mov	r2, #1
	str	r2, [r3, #420]
	ldr	r3, .L243+160
	ldr	r2, [r3, #368]
	ldr	r3, .L243+160
	str	r2, [r3, #364]
	ldr	r3, .L243+160
	ldr	r2, [r3, #344]
	ldr	r3, .L243+160
	str	r2, [r3, #348]
.L156:
	ldr	r3, .L243+140
	mov	r2, #1
	str	r2, [r3, #0]
	ldr	r3, .L243+144
	ldr	r2, [fp, #-260]
	mov	r2, r2, asl #16
	mov	r2, r2, lsr #16
	strh	r2, [r3, #0]	@ movhi
	b	.L139
.L91:
	ldr	r3, [fp, #-260]
	mov	r2, r3, asl #8
	ldr	r3, .L243+144
	ldrb	r3, [r3, #0]	@ zero_extendqisi2
	orr	r3, r2, r3
	str	r3, [fp, #-260]
	ldr	r3, [fp, #-260]
	and	r3, r3, #7
	str	r3, [fp, #-160]
	ldr	r3, [fp, #-260]
	mov	r3, r3, lsr #4
	and	r3, r3, #15
	str	r3, [fp, #-156]
	ldr	r3, [fp, #-160]
	cmp	r3, #0
	bne	.L157
	ldr	r3, [fp, #-156]
	add	r3, r3, #1
	mov	r2, #1
	mov	r3, r2, asl r3
	mov	r0, r3
	bl	__aeabi_i2d
	mov	r3, r0
	mov	r4, r1
	mov	r0, #0
	mov	r1, #1090519040
	add	r1, r1, #3145728
	mov	r2, r3
	mov	r3, r4
	bl	__aeabi_ddiv
	mov	r3, r0
	mov	r4, r1
	mov	r5, r3
	mov	r6, r4
	ldr	r3, .L243+136
	ldr	r3, [r3, #0]
	mov	r0, r3
	bl	__aeabi_ui2d
	mov	r3, r0
	mov	r4, r1
	mov	r0, r5
	mov	r1, r6
	mov	r2, r3
	mov	r3, r4
	bl	__aeabi_ddiv
	mov	r3, r0
	mov	r4, r1
	mov	r0, r3
	mov	r1, r4
	mov	r2, #0
	mov	r3, #1073741824
	add	r3, r3, #15728640
	bl	__aeabi_dmul
	mov	r3, r0
	mov	r4, r1
	mov	r0, r3
	mov	r1, r4
	bl	__aeabi_d2uiz
	mov	r2, r0
	ldr	r3, .L243+160
	str	r2, [r3, #328]
	b	.L158
.L157:
	ldr	r3, [fp, #-156]
	add	r3, r3, #1
	ldr	r2, [fp, #-160]
	mov	r3, r2, asl r3
	mov	r0, r3
	bl	__aeabi_ui2d
	mov	r3, r0
	mov	r4, r1
	mov	r0, #0
	mov	r1, #1090519040
	add	r1, r1, #2097152
	mov	r2, r3
	mov	r3, r4
	bl	__aeabi_ddiv
	mov	r3, r0
	mov	r4, r1
	mov	r5, r3
	mov	r6, r4
	ldr	r3, .L243+136
	ldr	r3, [r3, #0]
	mov	r0, r3
	bl	__aeabi_ui2d
	mov	r3, r0
	mov	r4, r1
	mov	r0, r5
	mov	r1, r6
	mov	r2, r3
	mov	r3, r4
	bl	__aeabi_ddiv
	mov	r3, r0
	mov	r4, r1
	mov	r0, r3
	mov	r1, r4
	mov	r2, #0
	mov	r3, #1073741824
	add	r3, r3, #15728640
	bl	__aeabi_dmul
	mov	r3, r0
	mov	r4, r1
	mov	r0, r3
	mov	r1, r4
	bl	__aeabi_d2uiz
	mov	r2, r0
	ldr	r3, .L243+160
	str	r2, [r3, #328]
.L158:
	ldr	r3, [fp, #-260]
	mov	r3, r3, lsr #3
	and	r2, r3, #1
	ldr	r3, .L243+160
	str	r2, [r3, #400]
	ldr	r3, [fp, #-260]
	mov	r3, r3, lsr #14
	and	r2, r3, #1
	ldr	r3, .L243+160
	str	r2, [r3, #392]
	ldr	r3, [fp, #-260]
	and	r3, r3, #32768
	cmp	r3, #0
	beq	.L159
	ldr	r3, .L243+160
	mov	r2, #0
	str	r2, [r3, #332]
	ldr	r3, .L243+160
	mov	r2, #1
	str	r2, [r3, #420]
	ldr	r3, .L243+160
	ldr	r2, [r3, #368]
	ldr	r3, .L243+160
	str	r2, [r3, #364]
	ldr	r3, .L243+160
	ldr	r2, [r3, #344]
	ldr	r3, .L243+160
	str	r2, [r3, #348]
.L159:
	ldr	r3, .L243+140
	mov	r2, #1
	str	r2, [r3, #0]
	ldr	r3, .L243+144
	ldr	r2, [fp, #-260]
	mov	r2, r2, asl #16
	mov	r2, r2, lsr #16
	strh	r2, [r3, #0]	@ movhi
	b	.L139
.L92:
	ldr	r3, .L243+148
	add	r3, r3, #129
	ldrb	r3, [r3, #0]	@ zero_extendqisi2
	mov	r3, r3, asl #8
	ldr	r2, [fp, #-260]
	orr	r3, r2, r3
	str	r3, [fp, #-260]
	ldr	r3, [fp, #-260]
	and	r2, r3, #7
	ldr	r3, .L243+152
	str	r2, [r3, #0]
	ldr	r3, [fp, #-260]
	mov	r3, r3, lsr #4
	and	r2, r3, #7
	ldr	r3, .L243+156
	str	r2, [r3, #0]
	ldr	r3, [fp, #-260]
	mov	r3, r3, lsr #8
	and	r2, r3, #1
	ldr	r3, [fp, #-260]
	mov	r3, r3, lsr #11
	and	r3, r3, #3
	orr	r2, r2, r3
	ldr	r3, .L243+160
	str	r2, [r3, #92]
	ldr	r3, [fp, #-260]
	and	r2, r3, #7
	ldr	r3, .L243+152
	str	r2, [r3, #0]
	ldr	r3, [fp, #-260]
	mov	r3, r3, lsr #4
	and	r2, r3, #7
	ldr	r3, .L243+156
	str	r2, [r3, #0]
	ldr	r3, [fp, #-260]
	mov	r3, r3, lsr #9
	and	r2, r3, #1
	ldr	r3, [fp, #-260]
	mov	r3, r3, lsr #12
	and	r3, r3, #3
	orr	r2, r2, r3
	ldr	r3, .L243+160
	str	r2, [r3, #200]
	ldr	r3, [fp, #-260]
	and	r2, r3, #7
	ldr	r3, .L243+152
	str	r2, [r3, #0]
	ldr	r3, [fp, #-260]
	mov	r3, r3, lsr #4
	and	r2, r3, #7
	ldr	r3, .L243+156
	str	r2, [r3, #0]
	ldr	r3, [fp, #-260]
	mov	r3, r3, lsr #10
	and	r2, r3, #1
	ldr	r3, [fp, #-260]
	mov	r3, r3, lsr #13
	and	r3, r3, #3
	orr	r2, r2, r3
	ldr	r3, .L243+160
	str	r2, [r3, #308]
	ldr	r3, [fp, #-260]
	and	r2, r3, #7
	ldr	r3, .L243+152
	str	r2, [r3, #0]
	ldr	r3, [fp, #-260]
	mov	r3, r3, lsr #4
	and	r2, r3, #7
	ldr	r3, .L243+156
	str	r2, [r3, #0]
	ldr	r3, [fp, #-260]
	mov	r3, r3, lsr #11
	and	r2, r3, #1
	ldr	r3, [fp, #-260]
	mov	r3, r3, lsr #14
	and	r3, r3, #3
	orr	r2, r2, r3
	ldr	r3, .L243+160
	str	r2, [r3, #416]
	ldr	r3, .L243+164
	ldr	r2, [fp, #-260]
	mov	r2, r2, asl #16
	mov	r2, r2, lsr #16
	strh	r2, [r3, #0]	@ movhi
	b	.L139
.L93:
	ldr	r3, [fp, #-260]
	mov	r2, r3, asl #8
	ldr	r3, .L243+164
	ldrb	r3, [r3, #0]	@ zero_extendqisi2
	orr	r3, r2, r3
	str	r3, [fp, #-260]
	ldr	r3, [fp, #-260]
	and	r2, r3, #7
	ldr	r3, .L245
	str	r2, [r3, #0]
	ldr	r3, [fp, #-260]
	mov	r3, r3, lsr #4
	and	r2, r3, #7
	ldr	r3, .L245+4
	str	r2, [r3, #0]
	ldr	r3, [fp, #-260]
	mov	r3, r3, lsr #8
	and	r2, r3, #1
	ldr	r3, [fp, #-260]
	mov	r3, r3, lsr #11
	and	r3, r3, #3
	orr	r2, r2, r3
	ldr	r3, .L245+8
	str	r2, [r3, #92]
	ldr	r3, [fp, #-260]
	and	r2, r3, #7
	ldr	r3, .L245
	str	r2, [r3, #0]
	ldr	r3, [fp, #-260]
	mov	r3, r3, lsr #4
	and	r2, r3, #7
	ldr	r3, .L245+4
	str	r2, [r3, #0]
	ldr	r3, [fp, #-260]
	mov	r3, r3, lsr #9
	and	r2, r3, #1
	ldr	r3, [fp, #-260]
	mov	r3, r3, lsr #12
	and	r3, r3, #3
	orr	r2, r2, r3
	ldr	r3, .L245+8
	str	r2, [r3, #200]
	ldr	r3, [fp, #-260]
	and	r2, r3, #7
	ldr	r3, .L245
	str	r2, [r3, #0]
	ldr	r3, [fp, #-260]
	mov	r3, r3, lsr #4
	and	r2, r3, #7
	ldr	r3, .L245+4
	str	r2, [r3, #0]
	ldr	r3, [fp, #-260]
	mov	r3, r3, lsr #10
	and	r2, r3, #1
	ldr	r3, [fp, #-260]
	mov	r3, r3, lsr #13
	and	r3, r3, #3
	orr	r2, r2, r3
	ldr	r3, .L245+8
	str	r2, [r3, #308]
	ldr	r3, [fp, #-260]
	and	r2, r3, #7
	ldr	r3, .L245
	str	r2, [r3, #0]
	ldr	r3, [fp, #-260]
	mov	r3, r3, lsr #4
	and	r2, r3, #7
	ldr	r3, .L245+4
	str	r2, [r3, #0]
	ldr	r3, [fp, #-260]
	mov	r3, r3, lsr #11
	and	r2, r3, #1
	ldr	r3, [fp, #-260]
	mov	r3, r3, lsr #14
	and	r3, r3, #3
	orr	r2, r2, r3
	ldr	r3, .L245+8
	str	r2, [r3, #416]
	ldr	r3, .L245+12
	ldr	r2, [fp, #-260]
	mov	r2, r2, asl #16
	mov	r2, r2, lsr #16
	strh	r2, [r3, #0]	@ movhi
	b	.L139
.L94:
	ldr	r3, .L245+192
	add	r3, r3, #131
	ldrb	r3, [r3, #0]	@ zero_extendqisi2
	mov	r3, r3, asl #8
	ldr	r2, [fp, #-260]
	orr	r3, r2, r3
	str	r3, [fp, #-260]
	ldr	r3, [fp, #-260]
	mov	r3, r3, lsr #10
	and	r3, r3, #1
	cmp	r3, #0
	movne	r2, #0
	moveq	r2, #1
	ldr	r3, [fp, #-260]
	mov	r3, r3, lsr #14
	and	r3, r3, #1
	cmp	r3, #0
	bne	.L160
	mov	r3, #2
	b	.L161
.L160:
	mov	r3, #0
.L161:
	orr	r3, r2, r3
	mov	r2, r3
	ldr	r3, .L245+176
	str	r2, [r3, #20]
	ldr	r3, [fp, #-260]
	mov	r3, r3, lsr #10
	and	r2, r3, #1
	ldr	r3, [fp, #-260]
	mov	r3, r3, lsr #14
	and	r3, r3, #1
	mov	r3, r3, asl #1
	orr	r3, r2, r3
	mov	r2, r3
	ldr	r3, .L245+176
	str	r2, [r3, #52]
	ldr	r3, [fp, #-260]
	mov	r3, r3, lsr #2
	and	r2, r3, #1
	ldr	r3, .L245+144
	str	r2, [r3, #52]
	ldr	r3, [fp, #-260]
	mov	r3, r3, lsr #8
	and	r2, r3, #3
	ldr	r3, .L245+144
	str	r2, [r3, #48]
	ldr	r3, [fp, #-260]
	mov	r3, r3, lsr #3
	and	r2, r3, #1
	ldr	r3, .L245+144
	str	r2, [r3, #112]
	ldr	r3, [fp, #-260]
	mov	r3, r3, lsr #12
	and	r2, r3, #3
	ldr	r3, .L245+144
	str	r2, [r3, #108]
	ldr	r3, [fp, #-260]
	and	r2, r3, #3
	ldr	r3, .L245+16
	str	r2, [r3, #0]
	ldr	r3, [fp, #-260]
	mov	r3, r3, lsr #11
	and	r3, r3, #1
	and	r3, r3, #255
	cmp	r3, #0
	beq	.L162
	mov	r0, #0
	bl	sound_reset_fifo
.L162:
	ldr	r3, [fp, #-260]
	mov	r3, r3, lsr #15
	and	r3, r3, #1
	and	r3, r3, #255
	cmp	r3, #0
	beq	.L163
	mov	r0, #1
	bl	sound_reset_fifo
.L163:
	ldr	r3, .L245+20
	ldr	r2, [fp, #-260]
	mov	r2, r2, asl #16
	mov	r2, r2, lsr #16
	strh	r2, [r3, #0]	@ movhi
	b	.L139
.L95:
	ldr	r3, [fp, #-260]
	mov	r2, r3, asl #8
	ldr	r3, .L245+20
	ldrb	r3, [r3, #0]	@ zero_extendqisi2
	orr	r3, r2, r3
	str	r3, [fp, #-260]
	ldr	r3, [fp, #-260]
	mov	r3, r3, lsr #10
	and	r3, r3, #1
	cmp	r3, #0
	movne	r2, #0
	moveq	r2, #1
	ldr	r3, [fp, #-260]
	mov	r3, r3, lsr #14
	and	r3, r3, #1
	cmp	r3, #0
	bne	.L164
	mov	r3, #2
	b	.L165
.L164:
	mov	r3, #0
.L165:
	orr	r3, r2, r3
	mov	r2, r3
	ldr	r3, .L245+176
	str	r2, [r3, #20]
	ldr	r3, [fp, #-260]
	mov	r3, r3, lsr #10
	and	r2, r3, #1
	ldr	r3, [fp, #-260]
	mov	r3, r3, lsr #14
	and	r3, r3, #1
	mov	r3, r3, asl #1
	orr	r3, r2, r3
	mov	r2, r3
	ldr	r3, .L245+176
	str	r2, [r3, #52]
	ldr	r3, [fp, #-260]
	mov	r3, r3, lsr #2
	and	r2, r3, #1
	ldr	r3, .L245+144
	str	r2, [r3, #52]
	ldr	r3, [fp, #-260]
	mov	r3, r3, lsr #8
	and	r2, r3, #3
	ldr	r3, .L245+144
	str	r2, [r3, #48]
	ldr	r3, [fp, #-260]
	mov	r3, r3, lsr #3
	and	r2, r3, #1
	ldr	r3, .L245+144
	str	r2, [r3, #112]
	ldr	r3, [fp, #-260]
	mov	r3, r3, lsr #12
	and	r2, r3, #3
	ldr	r3, .L245+144
	str	r2, [r3, #108]
	ldr	r3, [fp, #-260]
	and	r2, r3, #3
	ldr	r3, .L245+16
	str	r2, [r3, #0]
	ldr	r3, [fp, #-260]
	mov	r3, r3, lsr #11
	and	r3, r3, #1
	and	r3, r3, #255
	cmp	r3, #0
	beq	.L166
	mov	r0, #0
	bl	sound_reset_fifo
.L166:
	ldr	r3, [fp, #-260]
	mov	r3, r3, lsr #15
	and	r3, r3, #1
	and	r3, r3, #255
	cmp	r3, #0
	beq	.L167
	mov	r0, #1
	bl	sound_reset_fifo
.L167:
	ldr	r3, .L245+20
	ldr	r2, [fp, #-260]
	mov	r2, r2, asl #16
	mov	r2, r2, lsr #16
	strh	r2, [r3, #0]	@ movhi
	b	.L139
.L96:
	ldr	r3, [fp, #-260]
	and	r3, r3, #128
	cmp	r3, #0
	beq	.L168
	ldr	r3, .L245+24
	ldr	r3, [r3, #0]
	cmp	r3, #1
	beq	.L170
	ldr	r3, .L245+24
	mov	r2, #1
	str	r2, [r3, #0]
	b	.L170
.L168:
	mov	r3, #0
	str	r3, [fp, #-152]
	b	.L171
.L172:
	ldr	r2, [fp, #-152]
	ldr	r0, .L245+8
	mov	r1, #96
	mov	r3, r2
	mov	r3, r3, asl #1
	add	r3, r3, r2
	mov	r2, r3, asl #3
	add	r3, r3, r2
	mov	r3, r3, asl #2
	add	r3, r3, r0
	add	r3, r3, r1
	mov	r2, #0
	str	r2, [r3, #0]
	ldr	r3, [fp, #-152]
	add	r3, r3, #1
	str	r3, [fp, #-152]
.L171:
	ldr	r3, [fp, #-152]
	cmp	r3, #3
	bls	.L172
	ldr	r3, .L245+24
	mov	r2, #0
	str	r2, [r3, #0]
.L170:
	ldr	r0, .L245+28
	ldr	r3, .L245+28
	ldrh	r3, [r3, #0]
	mov	r2, r3
	and	r2, r2, #15
	ldr	r3, [fp, #-260]
	mov	r3, r3, asl #16
	mov	r3, r3, lsr #16
	ldr	r1, .L245+32
	and	r1, r3, r1
	mov	r3, r1
	orr	r3, r2, r3
	mov	r3, r3, asl #16
	mov	r3, r3, lsr #16
	strh	r3, [r0, #0]	@ movhi
	b	.L139
.L97:
	ldr	r3, .L245+36
	mov	r2, #1
	str	r2, [r3, #0]
	ldr	r2, .L245+192
	ldr	r3, [fp, #-256]
	add	r3, r2, r3
	ldr	r2, [fp, #-260]
	and	r2, r2, #255
	strb	r2, [r3, #0]
	b	.L139
.L98:
	ldr	r3, [fp, #-260]
	and	r3, r3, #255
	mov	r0, #0
	mov	r1, r3
	bl	sound_timer_queue8
	b	.L139
.L99:
	ldr	r3, [fp, #-260]
	and	r3, r3, #255
	mov	r0, #1
	mov	r1, r3
	bl	sound_timer_queue8
	b	.L139
.L100:
	ldr	r3, .L245+192
	add	r3, r3, #187
	ldrb	r3, [r3, #0]	@ zero_extendqisi2
	mov	r3, r3, asl #8
	ldr	r2, [fp, #-260]
	orr	r3, r2, r3
	str	r3, [fp, #-260]
	ldr	r3, [fp, #-260]
	and	r3, r3, #32768
	cmp	r3, #0
	beq	.L173
	ldr	r3, .L245+40
	ldr	r3, [r3, #36]
	cmp	r3, #4
	bne	.L231
	ldr	r3, [fp, #-260]
	mov	r3, r3, lsr #12
	and	r3, r3, #3
	str	r3, [fp, #-148]
	ldr	r3, .L245+44
	ldr	r3, [r3, #0]
	bic	r3, r3, #-268435456
	str	r3, [fp, #-144]
	ldr	r3, .L245+40
	mov	r2, #0
	str	r2, [r3, #0]
	ldr	r3, .L245+48
	ldr	r3, [r3, #0]
	bic	r2, r3, #-268435456
	ldr	r3, .L245+40
	str	r2, [r3, #4]
	ldr	r3, .L245+40
	ldr	r2, [fp, #-144]
	str	r2, [r3, #8]
	ldr	r3, [fp, #-260]
	mov	r3, r3, lsr #7
	and	r2, r3, #3
	ldr	r3, .L245+40
	str	r2, [r3, #24]
	ldr	r3, [fp, #-260]
	mov	r3, r3, lsr #9
	and	r2, r3, #1
	ldr	r3, .L245+40
	str	r2, [r3, #16]
	ldr	r3, .L245+40
	ldr	r2, [fp, #-148]
	str	r2, [r3, #36]
	ldr	r3, [fp, #-260]
	mov	r3, r3, lsr #14
	and	r2, r3, #1
	ldr	r3, .L245+40
	str	r2, [r3, #40]
	ldr	r3, .L245+52
	ldrh	r3, [r3, #0]
	str	r3, [fp, #-140]
	ldr	r3, [fp, #-140]
	mov	r3, r3, asl #18
	mov	r3, r3, lsr #18
	str	r3, [fp, #-140]
	ldr	r3, [fp, #-140]
	cmp	r3, #0
	bne	.L175
	mov	r3, #16384
	str	r3, [fp, #-140]
.L175:
	ldr	r3, .L245+40
	ldr	r2, [fp, #-140]
	str	r2, [r3, #12]
	ldr	r3, [fp, #-260]
	mov	r3, r3, lsr #10
	and	r2, r3, #1
	ldr	r3, .L245+40
	str	r2, [r3, #32]
	ldr	r3, [fp, #-260]
	mov	r3, r3, lsr #5
	and	r2, r3, #3
	ldr	r3, .L245+40
	str	r2, [r3, #28]
	ldr	r3, .L245+56
	ldr	r2, [fp, #-260]
	mov	r2, r2, asl #16
	mov	r2, r2, lsr #16
	strh	r2, [r3, #0]	@ movhi
	ldr	r3, [fp, #-148]
	cmp	r3, #0
	bne	.L232
	ldr	r0, .L245+40
	bl	dma_transfer
	mov	r3, r0
	b	.L176
.L173:
	ldr	r3, .L245+40
	mov	r2, #4
	str	r2, [r3, #36]
	ldr	r3, .L245+40
	mov	r2, #2
	str	r2, [r3, #20]
	ldr	r3, .L245+56
	ldr	r2, [fp, #-260]
	mov	r2, r2, asl #16
	mov	r2, r2, lsr #16
	strh	r2, [r3, #0]	@ movhi
	b	.L139
.L101:
	ldr	r3, .L245+192
	add	r3, r3, #199
	ldrb	r3, [r3, #0]	@ zero_extendqisi2
	mov	r3, r3, asl #8
	ldr	r2, [fp, #-260]
	orr	r3, r2, r3
	str	r3, [fp, #-260]
	ldr	r3, [fp, #-260]
	and	r3, r3, #32768
	cmp	r3, #0
	beq	.L178
	ldr	r3, .L245+40
	ldr	r3, [r3, #80]
	cmp	r3, #4
	bne	.L233
	ldr	r3, [fp, #-260]
	mov	r3, r3, lsr #12
	and	r3, r3, #3
	str	r3, [fp, #-136]
	ldr	r3, .L245+60
	ldr	r3, [r3, #0]
	bic	r3, r3, #-268435456
	str	r3, [fp, #-132]
	ldr	r3, .L245+40
	mov	r2, #1
	str	r2, [r3, #44]
	ldr	r3, .L245+64
	ldr	r3, [r3, #0]
	bic	r2, r3, #-268435456
	ldr	r3, .L245+40
	str	r2, [r3, #48]
	ldr	r3, .L245+40
	ldr	r2, [fp, #-132]
	str	r2, [r3, #52]
	ldr	r3, [fp, #-260]
	mov	r3, r3, lsr #7
	and	r2, r3, #3
	ldr	r3, .L245+40
	str	r2, [r3, #68]
	ldr	r3, [fp, #-260]
	mov	r3, r3, lsr #9
	and	r2, r3, #1
	ldr	r3, .L245+40
	str	r2, [r3, #60]
	ldr	r3, .L245+40
	ldr	r2, [fp, #-136]
	str	r2, [r3, #80]
	ldr	r3, [fp, #-260]
	mov	r3, r3, lsr #14
	and	r2, r3, #1
	ldr	r3, .L245+40
	str	r2, [r3, #84]
	ldr	r3, [fp, #-136]
	cmp	r3, #3
	bne	.L180
	ldr	r3, .L245+40
	mov	r2, #1
	str	r2, [r3, #76]
	ldr	r3, .L245+40
	mov	r2, #4
	str	r2, [r3, #56]
	ldr	r3, .L245+40
	mov	r2, #2
	str	r2, [r3, #72]
	ldr	r2, [fp, #-132]
	ldr	r3, .L245+68
	cmp	r2, r3
	bne	.L181
	ldr	r3, .L245+40
	mov	r2, #1
	str	r2, [r3, #64]
	b	.L183
.L181:
	ldr	r3, .L245+40
	mov	r2, #0
	str	r2, [r3, #64]
	b	.L183
.L180:
	ldr	r3, .L245+72
	ldrh	r3, [r3, #0]
	str	r3, [fp, #-128]
	ldr	r3, [fp, #-128]
	mov	r3, r3, asl #18
	mov	r3, r3, lsr #18
	str	r3, [fp, #-128]
	ldr	r3, [fp, #-128]
	cmp	r3, #0
	bne	.L184
	mov	r3, #16384
	str	r3, [fp, #-128]
.L184:
	ldr	r3, .L245+40
	ldr	r2, [fp, #-128]
	str	r2, [r3, #56]
	ldr	r3, [fp, #-260]
	mov	r3, r3, lsr #10
	and	r2, r3, #1
	ldr	r3, .L245+40
	str	r2, [r3, #76]
	ldr	r3, [fp, #-260]
	mov	r3, r3, lsr #5
	and	r2, r3, #3
	ldr	r3, .L245+40
	str	r2, [r3, #72]
.L183:
	ldr	r3, .L245+76
	ldr	r2, [fp, #-260]
	mov	r2, r2, asl #16
	mov	r2, r2, lsr #16
	strh	r2, [r3, #0]	@ movhi
	ldr	r3, [fp, #-136]
	cmp	r3, #0
	bne	.L234
	ldr	r0, .L245+80
	bl	dma_transfer
	mov	r3, r0
	b	.L176
.L178:
	ldr	r3, .L245+40
	mov	r2, #4
	str	r2, [r3, #80]
	ldr	r3, .L245+40
	mov	r2, #2
	str	r2, [r3, #64]
	ldr	r3, .L245+76
	ldr	r2, [fp, #-260]
	mov	r2, r2, asl #16
	mov	r2, r2, lsr #16
	strh	r2, [r3, #0]	@ movhi
	b	.L139
.L102:
	ldr	r3, .L245+192
	add	r3, r3, #211
	ldrb	r3, [r3, #0]	@ zero_extendqisi2
	mov	r3, r3, asl #8
	ldr	r2, [fp, #-260]
	orr	r3, r2, r3
	str	r3, [fp, #-260]
	ldr	r3, [fp, #-260]
	and	r3, r3, #32768
	cmp	r3, #0
	beq	.L186
	ldr	r3, .L245+40
	ldr	r3, [r3, #124]
	cmp	r3, #4
	bne	.L235
	ldr	r3, [fp, #-260]
	mov	r3, r3, lsr #12
	and	r3, r3, #3
	str	r3, [fp, #-124]
	ldr	r3, .L245+84
	ldr	r3, [r3, #0]
	bic	r3, r3, #-268435456
	str	r3, [fp, #-120]
	ldr	r3, .L245+40
	mov	r2, #2
	str	r2, [r3, #88]
	ldr	r3, .L245+88
	ldr	r3, [r3, #0]
	bic	r2, r3, #-268435456
	ldr	r3, .L245+40
	str	r2, [r3, #92]
	ldr	r3, .L245+40
	ldr	r2, [fp, #-120]
	str	r2, [r3, #96]
	ldr	r3, [fp, #-260]
	mov	r3, r3, lsr #7
	and	r2, r3, #3
	ldr	r3, .L245+40
	str	r2, [r3, #112]
	ldr	r3, [fp, #-260]
	mov	r3, r3, lsr #9
	and	r2, r3, #1
	ldr	r3, .L245+40
	str	r2, [r3, #104]
	ldr	r3, .L245+40
	ldr	r2, [fp, #-124]
	str	r2, [r3, #124]
	ldr	r3, [fp, #-260]
	mov	r3, r3, lsr #14
	and	r2, r3, #1
	ldr	r3, .L245+40
	str	r2, [r3, #128]
	ldr	r3, [fp, #-124]
	cmp	r3, #3
	bne	.L188
	ldr	r3, .L245+40
	mov	r2, #1
	str	r2, [r3, #120]
	ldr	r3, .L245+40
	mov	r2, #4
	str	r2, [r3, #100]
	ldr	r3, .L245+40
	mov	r2, #2
	str	r2, [r3, #116]
	ldr	r2, [fp, #-120]
	ldr	r3, .L245+68
	cmp	r2, r3
	bne	.L189
	ldr	r3, .L245+40
	mov	r2, #1
	str	r2, [r3, #108]
	b	.L191
.L189:
	ldr	r3, .L245+40
	mov	r2, #0
	str	r2, [r3, #108]
	b	.L191
.L188:
	ldr	r3, .L245+92
	ldrh	r3, [r3, #0]
	str	r3, [fp, #-116]
	ldr	r3, [fp, #-116]
	mov	r3, r3, asl #18
	mov	r3, r3, lsr #18
	str	r3, [fp, #-116]
	ldr	r3, [fp, #-116]
	cmp	r3, #0
	bne	.L192
	mov	r3, #16384
	str	r3, [fp, #-116]
.L192:
	ldr	r3, .L245+40
	ldr	r2, [fp, #-116]
	str	r2, [r3, #100]
	ldr	r3, [fp, #-260]
	mov	r3, r3, lsr #10
	and	r2, r3, #1
	ldr	r3, .L245+40
	str	r2, [r3, #120]
	ldr	r3, [fp, #-260]
	mov	r3, r3, lsr #5
	and	r2, r3, #3
	ldr	r3, .L245+40
	str	r2, [r3, #116]
.L191:
	ldr	r3, .L245+96
	ldr	r2, [fp, #-260]
	mov	r2, r2, asl #16
	mov	r2, r2, lsr #16
	strh	r2, [r3, #0]	@ movhi
	ldr	r3, [fp, #-124]
	cmp	r3, #0
	bne	.L236
	ldr	r0, .L245+100
	bl	dma_transfer
	mov	r3, r0
	b	.L176
.L186:
	ldr	r3, .L245+40
	mov	r2, #4
	str	r2, [r3, #124]
	ldr	r3, .L245+40
	mov	r2, #2
	str	r2, [r3, #108]
	ldr	r3, .L245+96
	ldr	r2, [fp, #-260]
	mov	r2, r2, asl #16
	mov	r2, r2, lsr #16
	strh	r2, [r3, #0]	@ movhi
	b	.L139
.L103:
	ldr	r3, .L245+192
	add	r3, r3, #223
	ldrb	r3, [r3, #0]	@ zero_extendqisi2
	mov	r3, r3, asl #8
	ldr	r2, [fp, #-260]
	orr	r3, r2, r3
	str	r3, [fp, #-260]
	ldr	r3, [fp, #-260]
	and	r3, r3, #32768
	cmp	r3, #0
	beq	.L194
	ldr	r3, .L245+40
	ldr	r3, [r3, #168]
	cmp	r3, #4
	bne	.L237
	ldr	r3, [fp, #-260]
	mov	r3, r3, lsr #12
	and	r3, r3, #3
	str	r3, [fp, #-112]
	ldr	r3, .L245+104
	ldr	r3, [r3, #0]
	bic	r3, r3, #-268435456
	str	r3, [fp, #-108]
	ldr	r3, .L245+40
	mov	r2, #3
	str	r2, [r3, #132]
	ldr	r3, .L245+108
	ldr	r3, [r3, #0]
	bic	r2, r3, #-268435456
	ldr	r3, .L245+40
	str	r2, [r3, #136]
	ldr	r3, .L245+40
	ldr	r2, [fp, #-108]
	str	r2, [r3, #140]
	ldr	r3, [fp, #-260]
	mov	r3, r3, lsr #7
	and	r2, r3, #3
	ldr	r3, .L245+40
	str	r2, [r3, #156]
	ldr	r3, [fp, #-260]
	mov	r3, r3, lsr #9
	and	r2, r3, #1
	ldr	r3, .L245+40
	str	r2, [r3, #148]
	ldr	r3, .L245+40
	ldr	r2, [fp, #-112]
	str	r2, [r3, #168]
	ldr	r3, [fp, #-260]
	mov	r3, r3, lsr #14
	and	r2, r3, #1
	ldr	r3, .L245+40
	str	r2, [r3, #172]
	ldr	r3, .L245+112
	ldrh	r3, [r3, #0]
	str	r3, [fp, #-104]
	ldr	r3, [fp, #-108]
	mov	r3, r3, lsr #24
	cmp	r3, #13
	bne	.L196
	ldr	r3, [fp, #-104]
	and	r3, r3, #31
	cmp	r3, #17
	bne	.L196
	ldr	r3, .L245+116
	mov	r2, #1
	str	r2, [r3, #0]
.L196:
	ldr	r3, [fp, #-104]
	cmp	r3, #0
	bne	.L197
	mov	r3, #65536
	str	r3, [fp, #-104]
.L197:
	ldr	r3, .L245+40
	ldr	r2, [fp, #-104]
	str	r2, [r3, #144]
	ldr	r3, [fp, #-260]
	mov	r3, r3, lsr #10
	and	r2, r3, #1
	ldr	r3, .L245+40
	str	r2, [r3, #164]
	ldr	r3, [fp, #-260]
	mov	r3, r3, lsr #5
	and	r2, r3, #3
	ldr	r3, .L245+40
	str	r2, [r3, #160]
	ldr	r3, .L245+120
	ldr	r2, [fp, #-260]
	mov	r2, r2, asl #16
	mov	r2, r2, lsr #16
	strh	r2, [r3, #0]	@ movhi
	ldr	r3, [fp, #-112]
	cmp	r3, #0
	bne	.L238
	ldr	r0, .L245+124
	bl	dma_transfer
	mov	r3, r0
	b	.L176
.L194:
	ldr	r3, .L245+40
	mov	r2, #4
	str	r2, [r3, #168]
	ldr	r3, .L245+40
	mov	r2, #2
	str	r2, [r3, #152]
	ldr	r3, .L245+120
	ldr	r2, [fp, #-260]
	mov	r2, r2, asl #16
	mov	r2, r2, lsr #16
	strh	r2, [r3, #0]	@ movhi
	b	.L139
.L104:
	ldr	r3, .L245+192
	add	r3, r3, #256
	add	r3, r3, #1
	ldrb	r3, [r3, #0]	@ zero_extendqisi2
	mov	r3, r3, asl #8
	ldr	r2, [fp, #-260]
	orr	r3, r2, r3
	str	r3, [fp, #-260]
	ldr	r3, [fp, #-260]
	rsb	r2, r3, #65536
	ldr	r3, .L245+176
	str	r2, [r3, #4]
	ldr	r3, .L245+176
	ldr	r2, [r3, #4]
	ldr	r3, .L245+176
	ldr	r3, [r3, #8]
	mov	r3, r2, asl r3
	str	r3, [fp, #-100]
	ldr	r3, .L245+140
	ldr	r3, [r3, #0]
	ldr	r2, [fp, #-100]
	mul	r3, r2, r3
	mov	r0, r3
	bl	__aeabi_ui2d
	mov	r3, r0
	mov	r4, r1
	mov	r0, #0
	mov	r1, #1090519040
	add	r1, r1, #7340032
	mov	r2, r3
	mov	r3, r4
	bl	__aeabi_ddiv
	mov	r3, r0
	mov	r4, r1
	mov	r0, r3
	mov	r1, r4
	mov	r2, #0
	mov	r3, #1073741824
	add	r3, r3, #15728640
	bl	__aeabi_dmul
	mov	r3, r0
	mov	r4, r1
	mov	r0, r3
	mov	r1, r4
	bl	__aeabi_d2uiz
	mov	r2, r0
	ldr	r3, .L245+176
	str	r2, [r3, #16]
	b	.L139
.L105:
	ldr	r3, [fp, #-260]
	mov	r2, r3, asl #8
	ldr	r3, .L245+128
	ldrb	r3, [r3, #0]	@ zero_extendqisi2
	orr	r3, r2, r3
	str	r3, [fp, #-260]
	ldr	r3, [fp, #-260]
	rsb	r2, r3, #65536
	ldr	r3, .L245+176
	str	r2, [r3, #4]
	ldr	r3, .L245+176
	ldr	r2, [r3, #4]
	ldr	r3, .L245+176
	ldr	r3, [r3, #8]
	mov	r3, r2, asl r3
	str	r3, [fp, #-96]
	ldr	r3, .L245+140
	ldr	r3, [r3, #0]
	ldr	r2, [fp, #-96]
	mul	r3, r2, r3
	mov	r0, r3
	bl	__aeabi_ui2d
	mov	r3, r0
	mov	r4, r1
	mov	r0, #0
	mov	r1, #1090519040
	add	r1, r1, #7340032
	mov	r2, r3
	mov	r3, r4
	bl	__aeabi_ddiv
	mov	r3, r0
	mov	r4, r1
	mov	r0, r3
	mov	r1, r4
	mov	r2, #0
	mov	r3, #1073741824
	add	r3, r3, #15728640
	bl	__aeabi_dmul
	mov	r3, r0
	mov	r4, r1
	mov	r0, r3
	mov	r1, r4
	bl	__aeabi_d2uiz
	mov	r2, r0
	ldr	r3, .L245+176
	str	r2, [r3, #16]
	b	.L139
.L107:
	ldr	r3, .L245+192
	add	r3, r3, #260
	add	r3, r3, #1
	ldrb	r3, [r3, #0]	@ zero_extendqisi2
	mov	r3, r3, asl #8
	ldr	r2, [fp, #-260]
	orr	r3, r2, r3
	str	r3, [fp, #-260]
	ldr	r3, [fp, #-260]
	rsb	r2, r3, #65536
	ldr	r3, .L245+176
	str	r2, [r3, #36]
	ldr	r3, .L245+176
	ldr	r2, [r3, #36]
	ldr	r3, .L245+176
	ldr	r3, [r3, #40]
	mov	r3, r2, asl r3
	str	r3, [fp, #-92]
	ldr	r3, .L245+140
	ldr	r3, [r3, #0]
	ldr	r2, [fp, #-92]
	mul	r3, r2, r3
	mov	r0, r3
	bl	__aeabi_ui2d
	mov	r3, r0
	mov	r4, r1
	mov	r0, #0
	mov	r1, #1090519040
	add	r1, r1, #7340032
	mov	r2, r3
	mov	r3, r4
	bl	__aeabi_ddiv
	mov	r3, r0
	mov	r4, r1
	mov	r0, r3
	mov	r1, r4
	mov	r2, #0
	mov	r3, #1073741824
	add	r3, r3, #15728640
	bl	__aeabi_dmul
	mov	r3, r0
	mov	r4, r1
	mov	r0, r3
	mov	r1, r4
	bl	__aeabi_d2uiz
	mov	r2, r0
	ldr	r3, .L245+176
	str	r2, [r3, #48]
	b	.L139
.L108:
	ldr	r3, [fp, #-260]
	mov	r2, r3, asl #8
	ldr	r3, .L245+136
	ldrb	r3, [r3, #0]	@ zero_extendqisi2
	orr	r3, r2, r3
	str	r3, [fp, #-260]
	ldr	r3, [fp, #-260]
	rsb	r2, r3, #65536
	ldr	r3, .L245+176
	str	r2, [r3, #36]
	ldr	r3, .L245+176
	ldr	r2, [r3, #36]
	ldr	r3, .L245+176
	ldr	r3, [r3, #40]
	mov	r3, r2, asl r3
	str	r3, [fp, #-88]
	ldr	r3, .L245+140
	ldr	r3, [r3, #0]
	ldr	r2, [fp, #-88]
	mul	r3, r2, r3
	mov	r0, r3
	bl	__aeabi_ui2d
	mov	r3, r0
	mov	r4, r1
	mov	r0, #0
	mov	r1, #1090519040
	add	r1, r1, #7340032
	mov	r2, r3
	mov	r3, r4
	bl	__aeabi_ddiv
	mov	r3, r0
	mov	r4, r1
	mov	r0, r3
	mov	r1, r4
	mov	r2, #0
	mov	r3, #1073741824
	add	r3, r3, #15728640
	bl	__aeabi_dmul
	mov	r3, r0
	mov	r4, r1
	mov	r0, r3
	mov	r1, r4
	bl	__aeabi_d2uiz
	mov	r2, r0
	ldr	r3, .L245+176
	str	r2, [r3, #48]
	b	.L139
.L110:
	ldr	r3, .L245+192
	add	r3, r3, #264
	add	r3, r3, #1
	ldrb	r3, [r3, #0]	@ zero_extendqisi2
	mov	r3, r3, asl #8
	ldr	r2, [fp, #-260]
	orr	r3, r2, r3
	str	r3, [fp, #-260]
	ldr	r3, [fp, #-260]
	rsb	r2, r3, #65536
	ldr	r3, .L245+176
	str	r2, [r3, #68]
	b	.L139
.L111:
	ldr	r3, [fp, #-260]
	mov	r2, r3, asl #8
	ldr	r3, .L245+152
	ldrb	r3, [r3, #0]	@ zero_extendqisi2
	orr	r3, r2, r3
	str	r3, [fp, #-260]
	ldr	r3, [fp, #-260]
	rsb	r2, r3, #65536
	ldr	r3, .L245+176
	str	r2, [r3, #68]
	b	.L139
.L113:
	ldr	r3, .L245+192
	add	r3, r3, #268
	add	r3, r3, #1
	ldrb	r3, [r3, #0]	@ zero_extendqisi2
	mov	r3, r3, asl #8
	ldr	r2, [fp, #-260]
	orr	r3, r2, r3
	str	r3, [fp, #-260]
	ldr	r3, [fp, #-260]
	rsb	r2, r3, #65536
	ldr	r3, .L245+176
	str	r2, [r3, #100]
	b	.L139
.L246:
	.align	2
.L245:
	.word	gbc_sound_master_volume_right
	.word	gbc_sound_master_volume_left
	.word	gbc_sound_channel
	.word	io_registers+128
	.word	gbc_sound_master_volume
	.word	io_registers+130
	.word	sound_on
	.word	io_registers+132
	.word	65520
	.word	gbc_sound_wave_update
	.word	dma
	.word	io_registers+180
	.word	io_registers+176
	.word	io_registers+184
	.word	io_registers+186
	.word	io_registers+192
	.word	io_registers+188
	.word	67109028
	.word	io_registers+196
	.word	io_registers+198
	.word	dma+44
	.word	io_registers+204
	.word	io_registers+200
	.word	io_registers+208
	.word	io_registers+210
	.word	dma+88
	.word	io_registers+216
	.word	io_registers+212
	.word	io_registers+220
	.word	eeprom_size
	.word	io_registers+222
	.word	dma+132
	.word	io_registers+256
	.word	io_registers+258
	.word	io_registers+260
	.word	sound_frequency
	.word	direct_sound_channel
	.word	io_registers+262
	.word	io_registers+264
	.word	io_registers+266
	.word	prescale_table
	.word	io_registers+268
	.word	execute_cycles
	.word	cpu_ticks
	.word	timer
	.word	io_registers+270
	.word	io_registers+514
	.word	reg
	.word	io_registers
.L114:
	ldr	r3, [fp, #-260]
	mov	r2, r3, asl #8
	ldr	r3, .L245+164
	ldrb	r3, [r3, #0]	@ zero_extendqisi2
	orr	r3, r2, r3
	str	r3, [fp, #-260]
	ldr	r3, [fp, #-260]
	rsb	r2, r3, #65536
	ldr	r3, .L245+176
	str	r2, [r3, #100]
	b	.L139
.L106:
	ldr	r3, .L245+192
	add	r3, r3, #256
	add	r3, r3, #3
	ldrb	r3, [r3, #0]	@ zero_extendqisi2
	mov	r3, r3, asl #8
	ldr	r2, [fp, #-260]
	orr	r3, r2, r3
	str	r3, [fp, #-260]
	ldr	r3, [fp, #-260]
	and	r3, r3, #128
	cmp	r3, #0
	beq	.L199
	ldr	r3, .L245+176
	ldr	r3, [r3, #28]
	cmp	r3, #0
	bne	.L239
	ldr	r3, [fp, #-260]
	and	r2, r3, #3
	ldr	r3, .L245+160
	ldr	r3, [r3, r2, asl #2]
	str	r3, [fp, #-68]
	ldr	r3, .L245+176
	ldr	r3, [r3, #4]
	str	r3, [fp, #-64]
	ldr	r3, [fp, #-260]
	mov	r3, r3, lsr #2
	and	r3, r3, #1
	and	r3, r3, #255
	cmp	r3, #0
	beq	.L201
	ldr	r3, .L245+176
	mov	r2, #2
	str	r2, [r3, #28]
	b	.L202
.L201:
	ldr	r3, .L245+176
	mov	r2, #1
	str	r2, [r3, #28]
.L202:
	ldr	r3, .L245+176
	ldr	r2, [fp, #-68]
	str	r2, [r3, #8]
	ldr	r3, [fp, #-260]
	mov	r3, r3, lsr #6
	and	r2, r3, #1
	ldr	r3, .L245+176
	str	r2, [r3, #24]
	ldr	r3, .L245+128
	ldr	r2, [fp, #-64]
	mov	r2, r2, asl #16
	mov	r2, r2, lsr #16
	rsb	r2, r2, #0
	mov	r2, r2, asl #16
	mov	r2, r2, lsr #16
	strh	r2, [r3, #0]	@ movhi
	ldr	r3, [fp, #-68]
	ldr	r2, [fp, #-64]
	mov	r3, r2, asl r3
	str	r3, [fp, #-64]
	ldr	r2, [fp, #-64]
	ldr	r3, .L245+176
	str	r2, [r3, #0]
	ldr	r3, .L245+168
	ldr	r3, [r3, #0]
	ldr	r2, [fp, #-64]
	cmp	r2, r3
	bcs	.L203
	ldr	r3, .L245+168
	ldr	r2, [fp, #-64]
	str	r2, [r3, #0]
.L203:
	ldr	r3, .L245+172
	ldr	r2, [r3, #0]
	ldr	r3, .L245+176
	ldr	r3, [r3, #12]
	rsb	r3, r3, r2
	mov	r0, r3
	bl	__aeabi_ui2f
	mov	r4, r0
	ldr	r3, .L245+140
	ldr	r3, [r3, #0]
	mov	r0, r3
	bl	__aeabi_ui2f
	mov	r3, r0
	mov	r0, r4
	mov	r1, r3
	bl	__aeabi_fmul
	mov	r3, r0
	mov	r0, r3
	bl	__aeabi_f2d
	mov	r3, r0
	mov	r4, r1
	mov	r0, r3
	mov	r1, r4
	mov	r2, #0
	mov	r3, #1090519040
	add	r3, r3, #7340032
	bl	__aeabi_ddiv
	mov	r3, r0
	mov	r4, r1
	mov	r0, r3
	mov	r1, r4
	bl	__aeabi_d2uiz
	mov	r3, r0
	mov	r3, r3, asl #1
	str	r3, [fp, #-60]
	ldr	r3, .L245+140
	ldr	r3, [r3, #0]
	ldr	r2, [fp, #-64]
	mul	r3, r2, r3
	mov	r0, r3
	bl	__aeabi_ui2d
	mov	r3, r0
	mov	r4, r1
	mov	r0, #0
	mov	r1, #1090519040
	add	r1, r1, #7340032
	mov	r2, r3
	mov	r3, r4
	bl	__aeabi_ddiv
	mov	r3, r0
	mov	r4, r1
	mov	r0, r3
	mov	r1, r4
	mov	r2, #0
	mov	r3, #1073741824
	add	r3, r3, #15728640
	bl	__aeabi_dmul
	mov	r3, r0
	mov	r4, r1
	mov	r0, r3
	mov	r1, r4
	bl	__aeabi_d2uiz
	mov	r2, r0
	ldr	r3, .L245+176
	str	r2, [r3, #16]
	ldr	r3, .L245+176
	ldr	r3, [r3, #20]
	and	r3, r3, #1
	and	r3, r3, #255
	cmp	r3, #0
	beq	.L204
	ldr	r3, .L245+144
	ldr	r2, [r3, #44]
	ldr	r3, [fp, #-60]
	add	r3, r2, r3
	mov	r3, r3, asl #16
	mov	r3, r3, lsr #16
	ldr	r2, .L245+144
	str	r3, [r2, #44]
.L204:
	ldr	r3, .L245+176
	ldr	r3, [r3, #20]
	and	r3, r3, #2
	cmp	r3, #0
	beq	.L205
	ldr	r3, .L245+144
	ldr	r2, [r3, #104]
	ldr	r3, [fp, #-60]
	add	r3, r2, r3
	mov	r3, r3, asl #16
	mov	r3, r3, lsr #16
	ldr	r2, .L245+144
	str	r3, [r2, #104]
	b	.L205
.L199:
	ldr	r3, .L245+176
	ldr	r3, [r3, #28]
	cmp	r3, #0
	beq	.L205
	ldr	r3, .L245+176
	mov	r2, #0
	str	r2, [r3, #28]
	ldr	r3, .L245+172
	ldr	r2, [r3, #0]
	ldr	r3, .L245+176
	str	r2, [r3, #12]
	b	.L205
.L239:
	mov	r0, r0	@ nop
.L205:
	ldr	r3, .L245+132
	ldr	r2, [fp, #-260]
	mov	r2, r2, asl #16
	mov	r2, r2, lsr #16
	strh	r2, [r3, #0]	@ movhi
	b	.L139
.L109:
	ldr	r3, .L245+192
	add	r3, r3, #260
	add	r3, r3, #3
	ldrb	r3, [r3, #0]	@ zero_extendqisi2
	mov	r3, r3, asl #8
	ldr	r2, [fp, #-260]
	orr	r3, r2, r3
	str	r3, [fp, #-260]
	ldr	r3, [fp, #-260]
	and	r3, r3, #128
	cmp	r3, #0
	beq	.L206
	ldr	r3, .L245+176
	ldr	r3, [r3, #60]
	cmp	r3, #0
	bne	.L240
	ldr	r3, [fp, #-260]
	and	r2, r3, #3
	ldr	r3, .L245+160
	ldr	r3, [r3, r2, asl #2]
	str	r3, [fp, #-56]
	ldr	r3, .L245+176
	ldr	r3, [r3, #36]
	str	r3, [fp, #-52]
	ldr	r3, [fp, #-260]
	mov	r3, r3, lsr #2
	and	r3, r3, #1
	and	r3, r3, #255
	cmp	r3, #0
	beq	.L208
	ldr	r3, .L245+176
	mov	r2, #2
	str	r2, [r3, #60]
	b	.L209
.L208:
	ldr	r3, .L245+176
	mov	r2, #1
	str	r2, [r3, #60]
.L209:
	ldr	r3, .L245+176
	ldr	r2, [fp, #-56]
	str	r2, [r3, #40]
	ldr	r3, [fp, #-260]
	mov	r3, r3, lsr #6
	and	r2, r3, #1
	ldr	r3, .L245+176
	str	r2, [r3, #56]
	ldr	r3, .L245+136
	ldr	r2, [fp, #-52]
	mov	r2, r2, asl #16
	mov	r2, r2, lsr #16
	rsb	r2, r2, #0
	mov	r2, r2, asl #16
	mov	r2, r2, lsr #16
	strh	r2, [r3, #0]	@ movhi
	ldr	r3, [fp, #-56]
	ldr	r2, [fp, #-52]
	mov	r3, r2, asl r3
	str	r3, [fp, #-52]
	ldr	r2, [fp, #-52]
	ldr	r3, .L245+176
	str	r2, [r3, #32]
	ldr	r3, .L245+168
	ldr	r3, [r3, #0]
	ldr	r2, [fp, #-52]
	cmp	r2, r3
	bcs	.L210
	ldr	r3, .L245+168
	ldr	r2, [fp, #-52]
	str	r2, [r3, #0]
.L210:
	ldr	r3, .L245+172
	ldr	r2, [r3, #0]
	ldr	r3, .L245+176
	ldr	r3, [r3, #44]
	rsb	r3, r3, r2
	mov	r0, r3
	bl	__aeabi_ui2f
	mov	r4, r0
	ldr	r3, .L245+140
	ldr	r3, [r3, #0]
	mov	r0, r3
	bl	__aeabi_ui2f
	mov	r3, r0
	mov	r0, r4
	mov	r1, r3
	bl	__aeabi_fmul
	mov	r3, r0
	mov	r0, r3
	bl	__aeabi_f2d
	mov	r3, r0
	mov	r4, r1
	mov	r0, r3
	mov	r1, r4
	mov	r2, #0
	mov	r3, #1090519040
	add	r3, r3, #7340032
	bl	__aeabi_ddiv
	mov	r3, r0
	mov	r4, r1
	mov	r0, r3
	mov	r1, r4
	bl	__aeabi_d2uiz
	mov	r3, r0
	mov	r3, r3, asl #1
	str	r3, [fp, #-48]
	ldr	r3, .L245+140
	ldr	r3, [r3, #0]
	ldr	r2, [fp, #-52]
	mul	r3, r2, r3
	mov	r0, r3
	bl	__aeabi_ui2d
	mov	r3, r0
	mov	r4, r1
	mov	r0, #0
	mov	r1, #1090519040
	add	r1, r1, #7340032
	mov	r2, r3
	mov	r3, r4
	bl	__aeabi_ddiv
	mov	r3, r0
	mov	r4, r1
	mov	r0, r3
	mov	r1, r4
	mov	r2, #0
	mov	r3, #1073741824
	add	r3, r3, #15728640
	bl	__aeabi_dmul
	mov	r3, r0
	mov	r4, r1
	mov	r0, r3
	mov	r1, r4
	bl	__aeabi_d2uiz
	mov	r2, r0
	ldr	r3, .L245+176
	str	r2, [r3, #48]
	ldr	r3, .L245+176
	ldr	r3, [r3, #52]
	and	r3, r3, #1
	and	r3, r3, #255
	cmp	r3, #0
	beq	.L211
	ldr	r3, .L245+144
	ldr	r2, [r3, #44]
	ldr	r3, [fp, #-48]
	add	r3, r2, r3
	mov	r3, r3, asl #16
	mov	r3, r3, lsr #16
	ldr	r2, .L245+144
	str	r3, [r2, #44]
.L211:
	ldr	r3, .L245+176
	ldr	r3, [r3, #52]
	and	r3, r3, #2
	cmp	r3, #0
	beq	.L212
	ldr	r3, .L245+144
	ldr	r2, [r3, #104]
	ldr	r3, [fp, #-48]
	add	r3, r2, r3
	mov	r3, r3, asl #16
	mov	r3, r3, lsr #16
	ldr	r2, .L245+144
	str	r3, [r2, #104]
	b	.L212
.L206:
	ldr	r3, .L245+176
	ldr	r3, [r3, #60]
	cmp	r3, #0
	beq	.L212
	ldr	r3, .L245+176
	mov	r2, #0
	str	r2, [r3, #60]
	ldr	r3, .L245+172
	ldr	r2, [r3, #0]
	ldr	r3, .L245+176
	str	r2, [r3, #44]
	b	.L212
.L240:
	mov	r0, r0	@ nop
.L212:
	ldr	r3, .L245+148
	ldr	r2, [fp, #-260]
	mov	r2, r2, asl #16
	mov	r2, r2, lsr #16
	strh	r2, [r3, #0]	@ movhi
	b	.L139
.L112:
	ldr	r3, .L245+192
	add	r3, r3, #264
	add	r3, r3, #3
	ldrb	r3, [r3, #0]	@ zero_extendqisi2
	mov	r3, r3, asl #8
	ldr	r2, [fp, #-260]
	orr	r3, r2, r3
	str	r3, [fp, #-260]
	ldr	r3, [fp, #-260]
	and	r3, r3, #128
	cmp	r3, #0
	beq	.L213
	ldr	r3, .L245+176
	ldr	r3, [r3, #92]
	cmp	r3, #0
	bne	.L241
	ldr	r3, [fp, #-260]
	and	r2, r3, #3
	ldr	r3, .L245+160
	ldr	r3, [r3, r2, asl #2]
	str	r3, [fp, #-44]
	ldr	r3, .L245+176
	ldr	r3, [r3, #68]
	str	r3, [fp, #-40]
	ldr	r3, [fp, #-260]
	mov	r3, r3, lsr #2
	and	r3, r3, #1
	and	r3, r3, #255
	cmp	r3, #0
	beq	.L215
	ldr	r3, .L245+176
	mov	r2, #2
	str	r2, [r3, #92]
	b	.L216
.L215:
	ldr	r3, .L245+176
	mov	r2, #1
	str	r2, [r3, #92]
.L216:
	ldr	r3, .L245+176
	ldr	r2, [fp, #-44]
	str	r2, [r3, #72]
	ldr	r3, [fp, #-260]
	mov	r3, r3, lsr #6
	and	r2, r3, #1
	ldr	r3, .L245+176
	str	r2, [r3, #88]
	ldr	r3, .L245+152
	ldr	r2, [fp, #-40]
	mov	r2, r2, asl #16
	mov	r2, r2, lsr #16
	rsb	r2, r2, #0
	mov	r2, r2, asl #16
	mov	r2, r2, lsr #16
	strh	r2, [r3, #0]	@ movhi
	ldr	r3, [fp, #-44]
	ldr	r2, [fp, #-40]
	mov	r3, r2, asl r3
	str	r3, [fp, #-40]
	ldr	r2, [fp, #-40]
	ldr	r3, .L245+176
	str	r2, [r3, #64]
	ldr	r3, .L245+168
	ldr	r3, [r3, #0]
	ldr	r2, [fp, #-40]
	cmp	r2, r3
	bcs	.L218
	ldr	r3, .L245+168
	ldr	r2, [fp, #-40]
	str	r2, [r3, #0]
	b	.L218
.L213:
	ldr	r3, .L245+176
	ldr	r3, [r3, #92]
	cmp	r3, #0
	beq	.L218
	ldr	r3, .L245+176
	mov	r2, #0
	str	r2, [r3, #92]
	ldr	r3, .L245+172
	ldr	r2, [r3, #0]
	ldr	r3, .L245+176
	str	r2, [r3, #76]
	b	.L218
.L241:
	mov	r0, r0	@ nop
.L218:
	ldr	r3, .L245+156
	ldr	r2, [fp, #-260]
	mov	r2, r2, asl #16
	mov	r2, r2, lsr #16
	strh	r2, [r3, #0]	@ movhi
	b	.L139
.L115:
	ldr	r3, .L245+192
	add	r3, r3, #268
	add	r3, r3, #3
	ldrb	r3, [r3, #0]	@ zero_extendqisi2
	mov	r3, r3, asl #8
	ldr	r2, [fp, #-260]
	orr	r3, r2, r3
	str	r3, [fp, #-260]
	ldr	r3, [fp, #-260]
	and	r3, r3, #128
	cmp	r3, #0
	beq	.L219
	ldr	r3, .L245+176
	ldr	r3, [r3, #124]
	cmp	r3, #0
	bne	.L242
	ldr	r3, [fp, #-260]
	and	r2, r3, #3
	ldr	r3, .L245+160
	ldr	r3, [r3, r2, asl #2]
	str	r3, [fp, #-32]
	ldr	r3, .L245+176
	ldr	r3, [r3, #100]
	str	r3, [fp, #-28]
	ldr	r3, [fp, #-260]
	mov	r3, r3, lsr #2
	and	r3, r3, #1
	and	r3, r3, #255
	cmp	r3, #0
	beq	.L221
	ldr	r3, .L245+176
	mov	r2, #2
	str	r2, [r3, #124]
	b	.L222
.L221:
	ldr	r3, .L245+176
	mov	r2, #1
	str	r2, [r3, #124]
.L222:
	ldr	r3, .L245+176
	ldr	r2, [fp, #-32]
	str	r2, [r3, #104]
	ldr	r3, [fp, #-260]
	mov	r3, r3, lsr #6
	and	r2, r3, #1
	ldr	r3, .L245+176
	str	r2, [r3, #120]
	ldr	r3, .L245+164
	ldr	r2, [fp, #-28]
	mov	r2, r2, asl #16
	mov	r2, r2, lsr #16
	rsb	r2, r2, #0
	mov	r2, r2, asl #16
	mov	r2, r2, lsr #16
	strh	r2, [r3, #0]	@ movhi
	ldr	r3, [fp, #-32]
	ldr	r2, [fp, #-28]
	mov	r3, r2, asl r3
	str	r3, [fp, #-28]
	ldr	r2, [fp, #-28]
	ldr	r3, .L245+176
	str	r2, [r3, #96]
	ldr	r3, .L245+168
	ldr	r3, [r3, #0]
	ldr	r2, [fp, #-28]
	cmp	r2, r3
	bcs	.L224
	ldr	r3, .L245+168
	ldr	r2, [fp, #-28]
	str	r2, [r3, #0]
	b	.L224
.L219:
	ldr	r3, .L245+176
	ldr	r3, [r3, #124]
	cmp	r3, #0
	beq	.L224
	ldr	r3, .L245+176
	mov	r2, #0
	str	r2, [r3, #124]
	ldr	r3, .L245+172
	ldr	r2, [r3, #0]
	ldr	r3, .L245+176
	str	r2, [r3, #108]
	b	.L224
.L242:
	mov	r0, r0	@ nop
.L224:
	ldr	r3, .L245+180
	ldr	r2, [fp, #-260]
	mov	r2, r2, asl #16
	mov	r2, r2, lsr #16
	strh	r2, [r3, #0]	@ movhi
	b	.L139
.L116:
	ldr	r3, .L245+184
	ldr	r2, .L245+184
	ldrb	r1, [r2, #0]	@ zero_extendqisi2
	ldr	r2, [fp, #-260]
	and	r2, r2, #255
	mvn	r2, r2
	and	r2, r2, #255
	and	r2, r1, r2
	and	r2, r2, #255
	strb	r2, [r3, #0]
	b	.L139
.L117:
	ldr	r3, .L245+192
	add	r3, r3, #512
	add	r3, r3, #3
	ldr	r2, .L245+192
	add	r2, r2, #512
	add	r2, r2, #3
	ldrb	r1, [r2, #0]	@ zero_extendqisi2
	ldr	r2, [fp, #-260]
	and	r2, r2, #255
	mvn	r2, r2
	and	r2, r2, #255
	and	r2, r1, r2
	and	r2, r2, #255
	strb	r2, [r3, #0]
	b	.L139
.L118:
	ldr	r3, [fp, #-260]
	and	r3, r3, #1
	cmp	r3, #0
	bne	.L225
	ldr	r3, .L245+188
	ldr	r3, [r3, #0]
	add	r3, r3, #120
	mov	r2, #1
	str	r2, [r3, #0]
	b	.L226
.L225:
	ldr	r3, .L245+188
	ldr	r3, [r3, #0]
	add	r3, r3, #120
	mov	r2, #2
	str	r2, [r3, #0]
.L226:
	mov	r3, #1
	b	.L176
.L52:
	ldr	r2, .L245+192
	ldr	r3, [fp, #-256]
	add	r3, r2, r3
	ldr	r2, [fp, #-260]
	and	r2, r2, #255
	strb	r2, [r3, #0]
	b	.L139
.L230:
	mov	r0, r0	@ nop
	b	.L139
.L231:
	mov	r0, r0	@ nop
	b	.L139
.L232:
	mov	r0, r0	@ nop
	b	.L139
.L233:
	mov	r0, r0	@ nop
	b	.L139
.L234:
	mov	r0, r0	@ nop
	b	.L139
.L235:
	mov	r0, r0	@ nop
	b	.L139
.L236:
	mov	r0, r0	@ nop
	b	.L139
.L237:
	mov	r0, r0	@ nop
	b	.L139
.L238:
	mov	r0, r0	@ nop
.L139:
	mov	r3, #0
.L176:
	mov	r0, r3
	sub	sp, fp, #16
	ldmfd	sp!, {r4, r5, r6, fp, pc}
	.size	write_io_register8, .-write_io_register8
	.align	2
	.global	write_io_register16
	.hidden	write_io_register16
	.type	write_io_register16, %function
write_io_register16:
	@ args = 0, pretend = 0, frame = 176
	@ frame_needed = 1, uses_anonymous_args = 0
	stmfd	sp!, {r4, r5, r6, fp, lr}
	add	fp, sp, #16
	sub	sp, sp, #180
	str	r0, [fp, #-192]
	str	r1, [fp, #-196]
	ldr	r3, [fp, #-192]
	cmp	r3, #128
	beq	.L270
	cmp	r3, #128
	bhi	.L292
	cmp	r3, #62
	beq	.L259
	cmp	r3, #62
	bhi	.L293
	cmp	r3, #42
	beq	.L253
	cmp	r3, #42
	bhi	.L294
	cmp	r3, #4
	beq	.L250
	cmp	r3, #4
	bhi	.L295
	cmp	r3, #0
	beq	.L249
	b	.L248
.L295:
	cmp	r3, #6
	beq	.L384
	cmp	r3, #40
	beq	.L252
	b	.L248
.L294:
	cmp	r3, #56
	beq	.L256
	cmp	r3, #56
	bhi	.L296
	cmp	r3, #44
	beq	.L254
	cmp	r3, #46
	beq	.L255
	b	.L248
.L296:
	cmp	r3, #58
	beq	.L257
	cmp	r3, #60
	beq	.L258
	b	.L248
.L293:
	cmp	r3, #108
	beq	.L264
	cmp	r3, #108
	bhi	.L297
	cmp	r3, #98
	beq	.L261
	cmp	r3, #98
	bhi	.L298
	cmp	r3, #96
	beq	.L260
	b	.L248
.L298:
	cmp	r3, #100
	beq	.L262
	cmp	r3, #104
	beq	.L263
	b	.L248
.L297:
	cmp	r3, #116
	beq	.L267
	cmp	r3, #116
	bhi	.L299
	cmp	r3, #112
	beq	.L265
	cmp	r3, #114
	beq	.L266
	b	.L248
.L299:
	cmp	r3, #120
	beq	.L268
	cmp	r3, #124
	beq	.L269
	b	.L248
.L292:
	cmp	r3, #256
	beq	.L280
	cmp	r3, #256
	bhi	.L300
	cmp	r3, #160
	beq	.L274
	cmp	r3, #160
	bhi	.L301
	cmp	r3, #132
	beq	.L272
	cmp	r3, #132
	bhi	.L302
	cmp	r3, #130
	beq	.L271
	b	.L248
.L302:
	sub	r3, r3, #144
	cmp	r3, #14
	bhi	.L248
	b	.L383
.L301:
	cmp	r3, #198
	beq	.L277
	cmp	r3, #198
	bhi	.L303
	cmp	r3, #164
	beq	.L275
	cmp	r3, #186
	beq	.L276
	b	.L248
.L303:
	cmp	r3, #210
	beq	.L278
	cmp	r3, #222
	beq	.L279
	b	.L248
.L300:
	cmp	r3, #268
	beq	.L286
	cmp	r3, #268
	bhi	.L304
	ldr	r2, .L399
	cmp	r3, r2
	beq	.L283
	ldr	r2, .L399
	cmp	r3, r2
	bhi	.L305
	ldr	r2, .L399+4
	cmp	r3, r2
	beq	.L281
	cmp	r3, #260
	beq	.L282
	b	.L248
.L305:
	cmp	r3, #264
	beq	.L284
	ldr	r2, .L399+8
	cmp	r3, r2
	beq	.L285
	b	.L248
.L304:
	ldr	r2, .L399+12
	cmp	r3, r2
	beq	.L289
	ldr	r2, .L399+12
	cmp	r3, r2
	bhi	.L306
	ldr	r2, .L399+16
	cmp	r3, r2
	beq	.L287
	cmp	r3, #304
	beq	.L385
	b	.L248
.L306:
	cmp	r3, #516
	beq	.L386
	cmp	r3, #768
	beq	.L291
	b	.L248
.L249:
	ldr	r3, .L399+20
	ldrh	r3, [r3, #0]
	str	r3, [fp, #-188]
	ldr	r2, [fp, #-196]
	ldr	r3, [fp, #-188]
	eor	r3, r2, r3
	and	r3, r3, #7
	cmp	r3, #0
	beq	.L307
	ldr	r3, .L399+24
	mov	r2, #1
	str	r2, [r3, #0]
.L307:
	ldr	r3, [fp, #-196]
	mov	r3, r3, asl #16
	mov	r2, r3, lsr #16
	ldr	r3, .L399+20
	strh	r2, [r3, #0]	@ movhi
	b	.L308
.L250:
	ldr	r0, .L399+28
	ldr	r3, .L399+28
	ldrh	r3, [r3, #0]
	mov	r2, r3
	and	r2, r2, #7
	ldr	r3, [fp, #-196]
	mov	r3, r3, asl #16
	mov	r3, r3, lsr #16
	ldr	r1, .L399+32
	and	r1, r3, r1
	mov	r3, r1
	orr	r3, r2, r3
	mov	r3, r3, asl #16
	mov	r3, r3, lsr #16
	strh	r3, [r0, #0]	@ movhi
	b	.L308
.L252:
	ldr	r3, .L399+36
	ldrh	r3, [r3, #0]
	mov	r3, r3, asl #16
	ldr	r2, [fp, #-196]
	orr	r3, r2, r3
	str	r3, [fp, #-196]
	ldr	r3, [fp, #-196]
	mov	r3, r3, asl #4
	mov	r2, r3, asr #4
	ldr	r3, .L399+40
	str	r2, [r3, #0]
	ldr	r3, .L399+44
	ldr	r2, [fp, #-196]
	str	r2, [r3, #0]
	b	.L308
.L253:
	ldr	r3, [fp, #-196]
	mov	r2, r3, asl #16
	ldr	r3, .L399+44
	ldrh	r3, [r3, #0]
	orr	r3, r2, r3
	str	r3, [fp, #-196]
	ldr	r3, [fp, #-196]
	mov	r3, r3, asl #4
	mov	r2, r3, asr #4
	ldr	r3, .L399+40
	str	r2, [r3, #0]
	ldr	r3, .L399+44
	ldr	r2, [fp, #-196]
	str	r2, [r3, #0]
	b	.L308
.L254:
	ldr	r3, .L399+48
	ldrh	r3, [r3, #0]
	mov	r3, r3, asl #16
	ldr	r2, [fp, #-196]
	orr	r3, r2, r3
	str	r3, [fp, #-196]
	ldr	r3, [fp, #-196]
	mov	r3, r3, asl #4
	mov	r2, r3, asr #4
	ldr	r3, .L399+52
	str	r2, [r3, #0]
	ldr	r3, .L399+56
	ldr	r2, [fp, #-196]
	str	r2, [r3, #0]
	b	.L308
.L255:
	ldr	r3, [fp, #-196]
	mov	r2, r3, asl #16
	ldr	r3, .L399+56
	ldrh	r3, [r3, #0]
	orr	r3, r2, r3
	str	r3, [fp, #-196]
	ldr	r3, [fp, #-196]
	mov	r3, r3, asl #4
	mov	r2, r3, asr #4
	ldr	r3, .L399+52
	str	r2, [r3, #0]
	ldr	r3, .L399+56
	ldr	r2, [fp, #-196]
	str	r2, [r3, #0]
	b	.L308
.L256:
	ldr	r3, .L399+60
	ldrh	r3, [r3, #0]
	mov	r3, r3, asl #16
	ldr	r2, [fp, #-196]
	orr	r3, r2, r3
	str	r3, [fp, #-196]
	ldr	r3, [fp, #-196]
	mov	r3, r3, asl #4
	mov	r2, r3, asr #4
	ldr	r3, .L399+40
	str	r2, [r3, #4]
	ldr	r3, .L399+64
	ldr	r2, [fp, #-196]
	str	r2, [r3, #0]
	b	.L308
.L257:
	ldr	r3, [fp, #-196]
	mov	r2, r3, asl #16
	ldr	r3, .L399+64
	ldrh	r3, [r3, #0]
	orr	r3, r2, r3
	str	r3, [fp, #-196]
	ldr	r3, [fp, #-196]
	mov	r3, r3, asl #4
	mov	r2, r3, asr #4
	ldr	r3, .L399+40
	str	r2, [r3, #4]
	ldr	r3, .L399+64
	ldr	r2, [fp, #-196]
	str	r2, [r3, #0]
	b	.L308
.L258:
	ldr	r3, .L399+68
	ldrh	r3, [r3, #0]
	mov	r3, r3, asl #16
	ldr	r2, [fp, #-196]
	orr	r3, r2, r3
	str	r3, [fp, #-196]
	ldr	r3, [fp, #-196]
	mov	r3, r3, asl #4
	mov	r2, r3, asr #4
	ldr	r3, .L399+52
	str	r2, [r3, #4]
	ldr	r3, .L399+72
	ldr	r2, [fp, #-196]
	str	r2, [r3, #0]
	b	.L308
.L259:
	ldr	r3, [fp, #-196]
	mov	r2, r3, asl #16
	ldr	r3, .L399+72
	ldrh	r3, [r3, #0]
	orr	r3, r2, r3
	str	r3, [fp, #-196]
	ldr	r3, [fp, #-196]
	mov	r3, r3, asl #4
	mov	r2, r3, asr #4
	ldr	r3, .L399+52
	str	r2, [r3, #4]
	ldr	r3, .L399+72
	ldr	r2, [fp, #-196]
	str	r2, [r3, #0]
	b	.L308
.L260:
	ldr	r3, [fp, #-196]
	mov	r3, r3, lsr #4
	and	r3, r3, #7
	mov	r3, r3, asl #1
	str	r3, [fp, #-184]
	ldr	r3, [fp, #-196]
	and	r2, r3, #7
	ldr	r3, .L399+148
	str	r2, [r3, #64]
	ldr	r3, [fp, #-196]
	mov	r3, r3, lsr #3
	and	r2, r3, #1
	ldr	r3, .L399+148
	str	r2, [r3, #52]
	ldr	r3, [fp, #-196]
	cmp	r3, #8
	moveq	r2, #0
	movne	r2, #1
	ldr	r3, .L399+148
	str	r2, [r3, #48]
	ldr	r3, .L399+148
	ldr	r2, [fp, #-184]
	str	r2, [r3, #56]
	ldr	r3, .L399+148
	ldr	r2, [fp, #-184]
	str	r2, [r3, #60]
	ldr	r3, .L399+76
	mov	r2, #1
	str	r2, [r3, #0]
	ldr	r3, .L399+80
	ldr	r2, [fp, #-196]
	mov	r2, r2, asl #16
	mov	r2, r2, lsr #16
	strh	r2, [r3, #0]	@ movhi
	b	.L308
.L261:
	ldr	r3, [fp, #-196]
	mov	r3, r3, lsr #12
	and	r3, r3, #15
	str	r3, [fp, #-180]
	ldr	r3, [fp, #-196]
	mov	r3, r3, lsr #8
	and	r3, r3, #7
	mov	r3, r3, asl #2
	str	r3, [fp, #-176]
	ldr	r3, [fp, #-196]
	and	r3, r3, #63
	rsb	r2, r3, #64
	ldr	r3, .L399+148
	str	r2, [r3, #72]
	ldr	r2, .L399+84
	ldr	r3, [fp, #-196]
	mov	r3, r3, lsr #6
	and	r3, r3, #3
	mov	r3, r3, asl #3
	add	r2, r2, r3
	ldr	r3, .L399+148
	str	r2, [r3, #104]
	ldr	r3, [fp, #-196]
	mov	r3, r3, lsr #11
	and	r2, r3, #1
	ldr	r3, .L399+148
	str	r2, [r3, #28]
	ldr	r3, .L399+148
	ldr	r2, [fp, #-180]
	str	r2, [r3, #20]
	ldr	r3, .L399+148
	ldr	r2, [fp, #-180]
	str	r2, [r3, #24]
	ldr	r3, .L399+148
	ldr	r2, [fp, #-176]
	str	r2, [r3, #44]
	ldr	r3, .L399+148
	ldr	r2, [fp, #-176]
	str	r2, [r3, #40]
	ldr	r3, [fp, #-176]
	cmp	r3, #0
	moveq	r2, #0
	movne	r2, #1
	ldr	r3, .L399+148
	str	r2, [r3, #32]
	ldr	r3, .L399+148
	ldr	r2, [fp, #-180]
	str	r2, [r3, #24]
	ldr	r3, .L399+76
	mov	r2, #1
	str	r2, [r3, #0]
	ldr	r3, .L399+88
	ldr	r2, [fp, #-196]
	mov	r2, r2, asl #16
	mov	r2, r2, lsr #16
	strh	r2, [r3, #0]	@ movhi
	b	.L308
.L262:
	ldr	r3, [fp, #-196]
	mov	r3, r3, asl #21
	mov	r3, r3, lsr #21
	str	r3, [fp, #-172]
	ldr	r3, .L399+148
	ldr	r2, [fp, #-172]
	str	r2, [r3, #0]
	ldr	r3, [fp, #-172]
	rsb	r3, r3, #2048
	mov	r0, r3
	bl	__aeabi_ui2d
	mov	r3, r0
	mov	r4, r1
	mov	r0, #0
	mov	r1, #1090519040
	mov	r2, r3
	mov	r3, r4
	bl	__aeabi_ddiv
	mov	r3, r0
	mov	r4, r1
	mov	r0, r3
	mov	r1, r4
	mov	r2, #0
	mov	r3, #1073741824
	add	r3, r3, #2097152
	bl	__aeabi_dmul
	mov	r3, r0
	mov	r4, r1
	mov	r5, r3
	mov	r6, r4
	ldr	r3, .L399+272
	ldr	r3, [r3, #0]
	mov	r0, r3
	bl	__aeabi_ui2d
	mov	r3, r0
	mov	r4, r1
	mov	r0, r5
	mov	r1, r6
	mov	r2, r3
	mov	r3, r4
	bl	__aeabi_ddiv
	mov	r3, r0
	mov	r4, r1
	mov	r0, r3
	mov	r1, r4
	mov	r2, #0
	mov	r3, #1073741824
	add	r3, r3, #15728640
	bl	__aeabi_dmul
	mov	r3, r0
	mov	r4, r1
	mov	r0, r3
	mov	r1, r4
	bl	__aeabi_d2uiz
	mov	r2, r0
	ldr	r3, .L399+148
	str	r2, [r3, #4]
	ldr	r3, [fp, #-196]
	mov	r3, r3, lsr #14
	and	r2, r3, #1
	ldr	r3, .L399+148
	str	r2, [r3, #68]
	ldr	r3, [fp, #-196]
	and	r3, r3, #32768
	cmp	r3, #0
	beq	.L309
	ldr	r3, .L399+148
	mov	r2, #1
	str	r2, [r3, #96]
	ldr	r3, .L399+148
	ldr	r3, [r3, #8]
	sub	r3, r3, #5440
	sub	r3, r3, #21
	ldr	r2, .L399+148
	str	r3, [r2, #8]
	ldr	r3, .L399+148
	ldr	r2, [r3, #44]
	ldr	r3, .L399+148
	str	r2, [r3, #40]
	ldr	r3, .L399+148
	ldr	r2, [r3, #20]
	ldr	r3, .L399+148
	str	r2, [r3, #24]
.L309:
	ldr	r3, .L399+76
	mov	r2, #1
	str	r2, [r3, #0]
	ldr	r3, .L399+92
	ldr	r2, [fp, #-196]
	mov	r2, r2, asl #16
	mov	r2, r2, lsr #16
	strh	r2, [r3, #0]	@ movhi
	b	.L308
.L263:
	ldr	r3, [fp, #-196]
	mov	r3, r3, lsr #12
	and	r3, r3, #15
	str	r3, [fp, #-168]
	ldr	r3, [fp, #-196]
	mov	r3, r3, lsr #8
	and	r3, r3, #7
	mov	r3, r3, asl #2
	str	r3, [fp, #-164]
	ldr	r3, [fp, #-196]
	and	r3, r3, #63
	rsb	r2, r3, #64
	ldr	r3, .L399+148
	str	r2, [r3, #180]
	ldr	r2, .L399+84
	ldr	r3, [fp, #-196]
	mov	r3, r3, lsr #6
	and	r3, r3, #3
	mov	r3, r3, asl #3
	add	r2, r2, r3
	ldr	r3, .L399+148
	str	r2, [r3, #212]
	ldr	r3, [fp, #-196]
	mov	r3, r3, lsr #11
	and	r2, r3, #1
	ldr	r3, .L399+148
	str	r2, [r3, #136]
	ldr	r3, .L399+148
	ldr	r2, [fp, #-168]
	str	r2, [r3, #128]
	ldr	r3, .L399+148
	ldr	r2, [fp, #-168]
	str	r2, [r3, #132]
	ldr	r3, .L399+148
	ldr	r2, [fp, #-164]
	str	r2, [r3, #152]
	ldr	r3, .L399+148
	ldr	r2, [fp, #-164]
	str	r2, [r3, #148]
	ldr	r3, [fp, #-164]
	cmp	r3, #0
	moveq	r2, #0
	movne	r2, #1
	ldr	r3, .L399+148
	str	r2, [r3, #140]
	ldr	r3, .L399+148
	ldr	r2, [fp, #-168]
	str	r2, [r3, #132]
	ldr	r3, .L399+76
	mov	r2, #1
	str	r2, [r3, #0]
	ldr	r3, .L399+96
	ldr	r2, [fp, #-196]
	mov	r2, r2, asl #16
	mov	r2, r2, lsr #16
	strh	r2, [r3, #0]	@ movhi
	b	.L308
.L264:
	ldr	r3, [fp, #-196]
	mov	r3, r3, asl #21
	mov	r3, r3, lsr #21
	str	r3, [fp, #-160]
	ldr	r3, .L399+148
	ldr	r2, [fp, #-160]
	str	r2, [r3, #108]
	ldr	r3, [fp, #-160]
	rsb	r3, r3, #2048
	mov	r0, r3
	bl	__aeabi_ui2d
	mov	r3, r0
	mov	r4, r1
	mov	r0, #0
	mov	r1, #1090519040
	mov	r2, r3
	mov	r3, r4
	bl	__aeabi_ddiv
	mov	r3, r0
	mov	r4, r1
	mov	r0, r3
	mov	r1, r4
	mov	r2, #0
	mov	r3, #1073741824
	add	r3, r3, #2097152
	bl	__aeabi_dmul
	mov	r3, r0
	mov	r4, r1
	mov	r5, r3
	mov	r6, r4
	ldr	r3, .L399+272
	ldr	r3, [r3, #0]
	mov	r0, r3
	bl	__aeabi_ui2d
	mov	r3, r0
	mov	r4, r1
	mov	r0, r5
	mov	r1, r6
	mov	r2, r3
	mov	r3, r4
	bl	__aeabi_ddiv
	mov	r3, r0
	mov	r4, r1
	mov	r0, r3
	mov	r1, r4
	mov	r2, #0
	mov	r3, #1073741824
	add	r3, r3, #15728640
	bl	__aeabi_dmul
	mov	r3, r0
	mov	r4, r1
	mov	r0, r3
	mov	r1, r4
	bl	__aeabi_d2uiz
	mov	r2, r0
	ldr	r3, .L399+148
	str	r2, [r3, #112]
	ldr	r3, [fp, #-196]
	mov	r3, r3, lsr #14
	and	r2, r3, #1
	ldr	r3, .L399+148
	str	r2, [r3, #176]
	ldr	r3, [fp, #-196]
	and	r3, r3, #32768
	cmp	r3, #0
	beq	.L310
	ldr	r3, .L399+148
	mov	r2, #1
	str	r2, [r3, #204]
	ldr	r3, .L399+148
	ldr	r3, [r3, #116]
	sub	r3, r3, #5440
	sub	r3, r3, #21
	ldr	r2, .L399+148
	str	r3, [r2, #116]
	ldr	r3, .L399+148
	ldr	r2, [r3, #152]
	ldr	r3, .L399+148
	str	r2, [r3, #148]
	ldr	r3, .L399+148
	ldr	r2, [r3, #128]
	ldr	r3, .L399+148
	str	r2, [r3, #132]
.L310:
	ldr	r3, .L399+76
	mov	r2, #1
	str	r2, [r3, #0]
	ldr	r3, .L399+100
	ldr	r2, [fp, #-196]
	mov	r2, r2, asl #16
	mov	r2, r2, lsr #16
	strh	r2, [r3, #0]	@ movhi
	b	.L308
.L265:
	ldr	r3, [fp, #-196]
	mov	r3, r3, lsr #5
	and	r2, r3, #1
	ldr	r3, .L399+148
	str	r2, [r3, #296]
	ldr	r3, [fp, #-196]
	mov	r3, r3, lsr #6
	and	r2, r3, #1
	ldr	r3, .L399+148
	str	r2, [r3, #300]
	ldr	r3, [fp, #-196]
	and	r3, r3, #128
	cmp	r3, #0
	beq	.L311
	ldr	r3, .L399+148
	mov	r2, #1
	str	r2, [r3, #316]
	b	.L312
.L311:
	ldr	r3, .L399+148
	mov	r2, #0
	str	r2, [r3, #316]
.L312:
	ldr	r3, .L399+76
	mov	r2, #1
	str	r2, [r3, #0]
	ldr	r3, .L399+104
	ldr	r2, [fp, #-196]
	mov	r2, r2, asl #16
	mov	r2, r2, lsr #16
	strh	r2, [r3, #0]	@ movhi
	b	.L308
.L266:
	ldr	r3, [fp, #-196]
	and	r3, r3, #255
	rsb	r2, r3, #256
	ldr	r3, .L399+148
	str	r2, [r3, #288]
	ldr	r3, [fp, #-196]
	mov	r3, r3, lsr #15
	and	r3, r3, #1
	and	r3, r3, #255
	cmp	r3, #0
	beq	.L313
	ldr	r3, .L399+148
	mov	r2, #12288
	str	r2, [r3, #304]
	b	.L314
.L313:
	ldr	r3, [fp, #-196]
	mov	r3, r3, lsr #13
	and	r2, r3, #3
	ldr	r3, .L399+108
	ldr	r2, [r3, r2, asl #2]
	ldr	r3, .L399+148
	str	r2, [r3, #304]
.L314:
	ldr	r3, .L399+76
	mov	r2, #1
	str	r2, [r3, #0]
	ldr	r3, .L399+112
	ldr	r2, [fp, #-196]
	mov	r2, r2, asl #16
	mov	r2, r2, lsr #16
	strh	r2, [r3, #0]	@ movhi
	b	.L308
.L267:
	ldr	r3, [fp, #-196]
	mov	r3, r3, asl #21
	mov	r3, r3, lsr #21
	str	r3, [fp, #-156]
	ldr	r3, .L399+148
	ldr	r2, [fp, #-156]
	str	r2, [r3, #216]
	ldr	r3, [fp, #-156]
	rsb	r3, r3, #2048
	mov	r0, r3
	bl	__aeabi_ui2d
	mov	r3, r0
	mov	r4, r1
	mov	r0, #0
	mov	r1, #1090519040
	add	r1, r1, #4194304
	mov	r2, r3
	mov	r3, r4
	bl	__aeabi_ddiv
	mov	r3, r0
	mov	r4, r1
	mov	r5, r3
	mov	r6, r4
	ldr	r3, .L399+272
	ldr	r3, [r3, #0]
	mov	r0, r3
	bl	__aeabi_ui2d
	mov	r3, r0
	mov	r4, r1
	mov	r0, r5
	mov	r1, r6
	mov	r2, r3
	mov	r3, r4
	bl	__aeabi_ddiv
	mov	r3, r0
	mov	r4, r1
	mov	r0, r3
	mov	r1, r4
	mov	r2, #0
	mov	r3, #1073741824
	add	r3, r3, #15728640
	bl	__aeabi_dmul
	mov	r3, r0
	mov	r4, r1
	mov	r0, r3
	mov	r1, r4
	bl	__aeabi_d2uiz
	mov	r2, r0
	ldr	r3, .L399+148
	str	r2, [r3, #220]
	ldr	r3, [fp, #-196]
	mov	r3, r3, lsr #14
	and	r2, r3, #1
	ldr	r3, .L399+148
	str	r2, [r3, #284]
	ldr	r3, [fp, #-196]
	and	r3, r3, #32768
	cmp	r3, #0
	beq	.L315
	ldr	r3, .L399+148
	mov	r2, #0
	str	r2, [r3, #224]
	ldr	r3, .L399+148
	mov	r2, #1
	str	r2, [r3, #312]
.L315:
	ldr	r3, .L399+76
	mov	r2, #1
	str	r2, [r3, #0]
	ldr	r3, .L399+116
	ldr	r2, [fp, #-196]
	mov	r2, r2, asl #16
	mov	r2, r2, lsr #16
	strh	r2, [r3, #0]	@ movhi
	b	.L308
.L268:
	ldr	r3, [fp, #-196]
	mov	r3, r3, lsr #12
	and	r3, r3, #15
	str	r3, [fp, #-152]
	ldr	r3, [fp, #-196]
	mov	r3, r3, lsr #8
	and	r3, r3, #7
	mov	r3, r3, asl #2
	str	r3, [fp, #-148]
	ldr	r3, [fp, #-196]
	and	r3, r3, #63
	rsb	r2, r3, #64
	ldr	r3, .L399+148
	str	r2, [r3, #396]
	ldr	r2, .L399+84
	ldr	r3, [fp, #-196]
	mov	r3, r3, lsr #6
	and	r3, r3, #3
	mov	r3, r3, asl #3
	add	r2, r2, r3
	ldr	r3, .L399+148
	str	r2, [r3, #428]
	ldr	r3, [fp, #-196]
	mov	r3, r3, lsr #11
	and	r2, r3, #1
	ldr	r3, .L399+148
	str	r2, [r3, #352]
	ldr	r3, .L399+148
	ldr	r2, [fp, #-152]
	str	r2, [r3, #344]
	ldr	r3, .L399+148
	ldr	r2, [fp, #-152]
	str	r2, [r3, #348]
	ldr	r3, .L399+148
	ldr	r2, [fp, #-148]
	str	r2, [r3, #368]
	ldr	r3, .L399+148
	ldr	r2, [fp, #-148]
	str	r2, [r3, #364]
	ldr	r3, [fp, #-148]
	cmp	r3, #0
	moveq	r2, #0
	movne	r2, #1
	ldr	r3, .L399+148
	str	r2, [r3, #356]
	ldr	r3, .L399+148
	ldr	r2, [fp, #-152]
	str	r2, [r3, #348]
	ldr	r3, .L399+76
	mov	r2, #1
	str	r2, [r3, #0]
	ldr	r3, .L399+120
	ldr	r2, [fp, #-196]
	mov	r2, r2, asl #16
	mov	r2, r2, lsr #16
	strh	r2, [r3, #0]	@ movhi
	b	.L308
.L269:
	ldr	r3, [fp, #-196]
	and	r3, r3, #7
	str	r3, [fp, #-144]
	ldr	r3, [fp, #-196]
	mov	r3, r3, lsr #4
	and	r3, r3, #15
	str	r3, [fp, #-140]
	ldr	r3, [fp, #-144]
	cmp	r3, #0
	bne	.L316
	ldr	r3, [fp, #-140]
	add	r3, r3, #1
	mov	r2, #1
	mov	r3, r2, asl r3
	mov	r0, r3
	bl	__aeabi_i2d
	mov	r3, r0
	mov	r4, r1
	mov	r0, #0
	mov	r1, #1090519040
	add	r1, r1, #3145728
	mov	r2, r3
	mov	r3, r4
	bl	__aeabi_ddiv
	mov	r3, r0
	mov	r4, r1
	mov	r5, r3
	mov	r6, r4
	ldr	r3, .L399+272
	ldr	r3, [r3, #0]
	mov	r0, r3
	bl	__aeabi_ui2d
	mov	r3, r0
	mov	r4, r1
	mov	r0, r5
	mov	r1, r6
	mov	r2, r3
	mov	r3, r4
	bl	__aeabi_ddiv
	mov	r3, r0
	mov	r4, r1
	mov	r0, r3
	mov	r1, r4
	mov	r2, #0
	mov	r3, #1073741824
	add	r3, r3, #15728640
	bl	__aeabi_dmul
	mov	r3, r0
	mov	r4, r1
	mov	r0, r3
	mov	r1, r4
	bl	__aeabi_d2uiz
	mov	r2, r0
	ldr	r3, .L399+148
	str	r2, [r3, #328]
	b	.L317
.L316:
	ldr	r3, [fp, #-140]
	add	r3, r3, #1
	ldr	r2, [fp, #-144]
	mov	r3, r2, asl r3
	mov	r0, r3
	bl	__aeabi_ui2d
	mov	r3, r0
	mov	r4, r1
	mov	r0, #0
	mov	r1, #1090519040
	add	r1, r1, #2097152
	mov	r2, r3
	mov	r3, r4
	bl	__aeabi_ddiv
	mov	r3, r0
	mov	r4, r1
	mov	r5, r3
	mov	r6, r4
	ldr	r3, .L399+272
	ldr	r3, [r3, #0]
	mov	r0, r3
	bl	__aeabi_ui2d
	mov	r3, r0
	mov	r4, r1
	mov	r0, r5
	mov	r1, r6
	mov	r2, r3
	mov	r3, r4
	bl	__aeabi_ddiv
	mov	r3, r0
	mov	r4, r1
	mov	r0, r3
	mov	r1, r4
	mov	r2, #0
	mov	r3, #1073741824
	add	r3, r3, #15728640
	bl	__aeabi_dmul
	mov	r3, r0
	mov	r4, r1
	mov	r0, r3
	mov	r1, r4
	bl	__aeabi_d2uiz
	mov	r2, r0
	ldr	r3, .L399+148
	str	r2, [r3, #328]
.L317:
	ldr	r3, [fp, #-196]
	mov	r3, r3, lsr #3
	and	r2, r3, #1
	ldr	r3, .L399+148
	str	r2, [r3, #400]
	ldr	r3, [fp, #-196]
	mov	r3, r3, lsr #14
	and	r2, r3, #1
	ldr	r3, .L399+148
	str	r2, [r3, #392]
	ldr	r3, [fp, #-196]
	and	r3, r3, #32768
	cmp	r3, #0
	beq	.L318
	ldr	r3, .L399+148
	mov	r2, #0
	str	r2, [r3, #332]
	ldr	r3, .L399+148
	mov	r2, #1
	str	r2, [r3, #420]
	ldr	r3, .L399+148
	ldr	r2, [r3, #368]
	ldr	r3, .L399+148
	str	r2, [r3, #364]
	ldr	r3, .L399+148
	ldr	r2, [r3, #344]
	ldr	r3, .L399+148
	str	r2, [r3, #348]
.L318:
	ldr	r3, .L399+76
	mov	r2, #1
	str	r2, [r3, #0]
	ldr	r3, .L399+124
	ldr	r2, [fp, #-196]
	mov	r2, r2, asl #16
	mov	r2, r2, lsr #16
	strh	r2, [r3, #0]	@ movhi
	b	.L308
.L270:
	ldr	r3, [fp, #-196]
	and	r2, r3, #7
	ldr	r3, .L399+128
	str	r2, [r3, #0]
	ldr	r3, [fp, #-196]
	mov	r3, r3, lsr #4
	and	r2, r3, #7
	ldr	r3, .L399+132
	str	r2, [r3, #0]
	ldr	r3, [fp, #-196]
	mov	r3, r3, lsr #8
	and	r2, r3, #1
	ldr	r3, [fp, #-196]
	mov	r3, r3, lsr #11
	and	r3, r3, #3
	orr	r2, r2, r3
	ldr	r3, .L399+148
	str	r2, [r3, #92]
	ldr	r3, [fp, #-196]
	and	r2, r3, #7
	ldr	r3, .L399+128
	str	r2, [r3, #0]
	ldr	r3, [fp, #-196]
	mov	r3, r3, lsr #4
	and	r2, r3, #7
	ldr	r3, .L399+132
	str	r2, [r3, #0]
	ldr	r3, [fp, #-196]
	mov	r3, r3, lsr #9
	and	r2, r3, #1
	ldr	r3, [fp, #-196]
	mov	r3, r3, lsr #12
	and	r3, r3, #3
	orr	r2, r2, r3
	ldr	r3, .L399+148
	str	r2, [r3, #200]
	ldr	r3, [fp, #-196]
	and	r2, r3, #7
	ldr	r3, .L399+128
	str	r2, [r3, #0]
	ldr	r3, [fp, #-196]
	mov	r3, r3, lsr #4
	and	r2, r3, #7
	ldr	r3, .L399+132
	str	r2, [r3, #0]
	ldr	r3, [fp, #-196]
	mov	r3, r3, lsr #10
	and	r2, r3, #1
	ldr	r3, [fp, #-196]
	mov	r3, r3, lsr #13
	and	r3, r3, #3
	orr	r2, r2, r3
	ldr	r3, .L399+148
	str	r2, [r3, #308]
	ldr	r3, [fp, #-196]
	and	r2, r3, #7
	ldr	r3, .L399+128
	str	r2, [r3, #0]
	ldr	r3, [fp, #-196]
	mov	r3, r3, lsr #4
	and	r2, r3, #7
	ldr	r3, .L399+132
	str	r2, [r3, #0]
	ldr	r3, [fp, #-196]
	mov	r3, r3, lsr #11
	and	r2, r3, #1
	ldr	r3, [fp, #-196]
	mov	r3, r3, lsr #14
	and	r3, r3, #3
	orr	r2, r2, r3
	ldr	r3, .L399+148
	str	r2, [r3, #416]
	ldr	r3, .L399+136
	ldr	r2, [fp, #-196]
	mov	r2, r2, asl #16
	mov	r2, r2, lsr #16
	strh	r2, [r3, #0]	@ movhi
	b	.L308
.L271:
	ldr	r3, [fp, #-196]
	mov	r3, r3, lsr #10
	and	r3, r3, #1
	cmp	r3, #0
	movne	r2, #0
	moveq	r2, #1
	ldr	r3, [fp, #-196]
	mov	r3, r3, lsr #14
	and	r3, r3, #1
	cmp	r3, #0
	bne	.L319
	mov	r3, #2
	b	.L320
.L319:
	mov	r3, #0
.L320:
	orr	r3, r2, r3
	mov	r2, r3
	ldr	r3, .L399+296
	str	r2, [r3, #20]
	ldr	r3, [fp, #-196]
	mov	r3, r3, lsr #10
	and	r2, r3, #1
	ldr	r3, [fp, #-196]
	mov	r3, r3, lsr #14
	and	r3, r3, #1
	mov	r3, r3, asl #1
	orr	r3, r2, r3
	mov	r2, r3
	ldr	r3, .L399+296
	str	r2, [r3, #52]
	ldr	r3, [fp, #-196]
	mov	r3, r3, lsr #2
	and	r2, r3, #1
	ldr	r3, .L399+276
	str	r2, [r3, #52]
	ldr	r3, [fp, #-196]
	mov	r3, r3, lsr #8
	and	r2, r3, #3
	ldr	r3, .L399+276
	str	r2, [r3, #48]
	ldr	r3, [fp, #-196]
	mov	r3, r3, lsr #3
	and	r2, r3, #1
	ldr	r3, .L399+276
	str	r2, [r3, #112]
	ldr	r3, [fp, #-196]
	mov	r3, r3, lsr #12
	and	r2, r3, #3
	ldr	r3, .L399+276
	str	r2, [r3, #108]
	ldr	r3, [fp, #-196]
	and	r2, r3, #3
	ldr	r3, .L399+140
	str	r2, [r3, #0]
	ldr	r3, [fp, #-196]
	mov	r3, r3, lsr #11
	and	r3, r3, #1
	and	r3, r3, #255
	cmp	r3, #0
	beq	.L321
	mov	r0, #0
	bl	sound_reset_fifo
.L321:
	ldr	r3, [fp, #-196]
	mov	r3, r3, lsr #15
	and	r3, r3, #1
	and	r3, r3, #255
	cmp	r3, #0
	beq	.L322
	mov	r0, #1
	bl	sound_reset_fifo
.L322:
	ldr	r3, .L399+144
	ldr	r2, [fp, #-196]
	mov	r2, r2, asl #16
	mov	r2, r2, lsr #16
	strh	r2, [r3, #0]	@ movhi
	b	.L308
.L400:
	.align	2
.L399:
	.word	262
	.word	258
	.word	266
	.word	514
	.word	270
	.word	io_registers
	.word	oam_update
	.word	io_registers+4
	.word	65528
	.word	io_registers+42
	.word	affine_reference_x
	.word	io_registers+40
	.word	io_registers+46
	.word	affine_reference_y
	.word	io_registers+44
	.word	io_registers+58
	.word	io_registers+56
	.word	io_registers+62
	.word	io_registers+60
	.word	gbc_sound_update
	.word	io_registers+96
	.word	square_pattern_duty
	.word	io_registers+98
	.word	io_registers+100
	.word	io_registers+104
	.word	io_registers+108
	.word	io_registers+112
	.word	gbc_sound_wave_volume
	.word	io_registers+114
	.word	io_registers+116
	.word	io_registers+120
	.word	io_registers+124
	.word	gbc_sound_master_volume_right
	.word	gbc_sound_master_volume_left
	.word	io_registers+128
	.word	gbc_sound_master_volume
	.word	io_registers+130
	.word	gbc_sound_channel
	.word	sound_on
	.word	io_registers+132
	.word	65520
	.word	gbc_sound_wave_update
	.word	io_registers
	.word	io_registers+180
	.word	io_registers+176
	.word	io_registers+184
	.word	io_registers+186
	.word	io_registers+192
	.word	io_registers+188
	.word	io_registers+196
	.word	dma+44
	.word	io_registers+198
	.word	io_registers+204
	.word	io_registers+200
	.word	67109028
	.word	io_registers+208
	.word	dma+88
	.word	io_registers+210
	.word	io_registers+216
	.word	io_registers+212
	.word	io_registers+220
	.word	eeprom_size
	.word	dma+132
	.word	dma
	.word	io_registers+222
	.word	io_registers+256
	.word	io_registers+258
	.word	io_registers+260
	.word	sound_frequency
	.word	direct_sound_channel
	.word	cpu_ticks
	.word	io_registers+262
	.word	prescale_table
	.word	io_registers+264
	.word	timer
	.word	execute_cycles
.L272:
	ldr	r3, [fp, #-196]
	and	r3, r3, #128
	cmp	r3, #0
	beq	.L323
	ldr	r3, .L399+152
	ldr	r3, [r3, #0]
	cmp	r3, #1
	beq	.L325
	ldr	r3, .L399+152
	mov	r2, #1
	str	r2, [r3, #0]
	b	.L325
.L323:
	mov	r3, #0
	str	r3, [fp, #-136]
	b	.L326
.L327:
	ldr	r2, [fp, #-136]
	ldr	r0, .L399+148
	mov	r1, #96
	mov	r3, r2
	mov	r3, r3, asl #1
	add	r3, r3, r2
	mov	r2, r3, asl #3
	add	r3, r3, r2
	mov	r3, r3, asl #2
	add	r3, r3, r0
	add	r3, r3, r1
	mov	r2, #0
	str	r2, [r3, #0]
	ldr	r3, [fp, #-136]
	add	r3, r3, #1
	str	r3, [fp, #-136]
.L326:
	ldr	r3, [fp, #-136]
	cmp	r3, #3
	bls	.L327
	ldr	r3, .L399+152
	mov	r2, #0
	str	r2, [r3, #0]
.L325:
	ldr	r0, .L399+156
	ldr	r3, .L399+156
	ldrh	r3, [r3, #0]
	mov	r2, r3
	and	r2, r2, #15
	ldr	r3, [fp, #-196]
	mov	r3, r3, asl #16
	mov	r3, r3, lsr #16
	ldr	r1, .L399+160
	and	r1, r3, r1
	mov	r3, r1
	orr	r3, r2, r3
	mov	r3, r3, asl #16
	mov	r3, r3, lsr #16
	strh	r3, [r0, #0]	@ movhi
	b	.L308
.L383:
	ldr	r3, .L399+164
	mov	r2, #1
	str	r2, [r3, #0]
	ldr	r2, [fp, #-192]
	ldr	r3, .L399+168
	add	r3, r2, r3
	ldr	r2, [fp, #-196]
	mov	r2, r2, asl #16
	mov	r2, r2, lsr #16
	strh	r2, [r3, #0]	@ movhi
	b	.L308
.L274:
	ldr	r3, [fp, #-196]
	mov	r3, r3, asl #16
	mov	r3, r3, lsr #16
	mov	r0, #0
	mov	r1, r3
	bl	sound_timer_queue16
	b	.L308
.L275:
	ldr	r3, [fp, #-196]
	mov	r3, r3, asl #16
	mov	r3, r3, lsr #16
	mov	r0, #1
	mov	r1, r3
	bl	sound_timer_queue16
	b	.L308
.L276:
	ldr	r3, [fp, #-196]
	and	r3, r3, #32768
	cmp	r3, #0
	beq	.L328
	ldr	r3, .L399+252
	ldr	r3, [r3, #36]
	cmp	r3, #4
	bne	.L387
	ldr	r3, [fp, #-196]
	mov	r3, r3, lsr #12
	and	r3, r3, #3
	str	r3, [fp, #-132]
	ldr	r3, .L399+172
	ldr	r3, [r3, #0]
	bic	r3, r3, #-268435456
	str	r3, [fp, #-128]
	ldr	r3, .L399+252
	mov	r2, #0
	str	r2, [r3, #0]
	ldr	r3, .L399+176
	ldr	r3, [r3, #0]
	bic	r2, r3, #-268435456
	ldr	r3, .L399+252
	str	r2, [r3, #4]
	ldr	r3, .L399+252
	ldr	r2, [fp, #-128]
	str	r2, [r3, #8]
	ldr	r3, [fp, #-196]
	mov	r3, r3, lsr #7
	and	r2, r3, #3
	ldr	r3, .L399+252
	str	r2, [r3, #24]
	ldr	r3, [fp, #-196]
	mov	r3, r3, lsr #9
	and	r2, r3, #1
	ldr	r3, .L399+252
	str	r2, [r3, #16]
	ldr	r3, .L399+252
	ldr	r2, [fp, #-132]
	str	r2, [r3, #36]
	ldr	r3, [fp, #-196]
	mov	r3, r3, lsr #14
	and	r2, r3, #1
	ldr	r3, .L399+252
	str	r2, [r3, #40]
	ldr	r3, .L399+180
	ldrh	r3, [r3, #0]
	str	r3, [fp, #-124]
	ldr	r3, [fp, #-124]
	mov	r3, r3, asl #18
	mov	r3, r3, lsr #18
	str	r3, [fp, #-124]
	ldr	r3, [fp, #-124]
	cmp	r3, #0
	bne	.L330
	mov	r3, #16384
	str	r3, [fp, #-124]
.L330:
	ldr	r3, .L399+252
	ldr	r2, [fp, #-124]
	str	r2, [r3, #12]
	ldr	r3, [fp, #-196]
	mov	r3, r3, lsr #10
	and	r2, r3, #1
	ldr	r3, .L399+252
	str	r2, [r3, #32]
	ldr	r3, [fp, #-196]
	mov	r3, r3, lsr #5
	and	r2, r3, #3
	ldr	r3, .L399+252
	str	r2, [r3, #28]
	ldr	r3, .L399+184
	ldr	r2, [fp, #-196]
	mov	r2, r2, asl #16
	mov	r2, r2, lsr #16
	strh	r2, [r3, #0]	@ movhi
	ldr	r3, [fp, #-132]
	cmp	r3, #0
	bne	.L388
	ldr	r0, .L399+252
	bl	dma_transfer
	mov	r3, r0
	b	.L331
.L328:
	ldr	r3, .L399+252
	mov	r2, #4
	str	r2, [r3, #36]
	ldr	r3, .L399+252
	mov	r2, #2
	str	r2, [r3, #20]
	ldr	r3, .L399+184
	ldr	r2, [fp, #-196]
	mov	r2, r2, asl #16
	mov	r2, r2, lsr #16
	strh	r2, [r3, #0]	@ movhi
	b	.L308
.L277:
	ldr	r3, [fp, #-196]
	and	r3, r3, #32768
	cmp	r3, #0
	beq	.L333
	ldr	r3, .L399+252
	ldr	r3, [r3, #80]
	cmp	r3, #4
	bne	.L389
	ldr	r3, [fp, #-196]
	mov	r3, r3, lsr #12
	and	r3, r3, #3
	str	r3, [fp, #-120]
	ldr	r3, .L399+188
	ldr	r3, [r3, #0]
	bic	r3, r3, #-268435456
	str	r3, [fp, #-116]
	ldr	r3, .L399+252
	mov	r2, #1
	str	r2, [r3, #44]
	ldr	r3, .L399+192
	ldr	r3, [r3, #0]
	bic	r2, r3, #-268435456
	ldr	r3, .L399+252
	str	r2, [r3, #48]
	ldr	r3, .L399+252
	ldr	r2, [fp, #-116]
	str	r2, [r3, #52]
	ldr	r3, [fp, #-196]
	mov	r3, r3, lsr #7
	and	r2, r3, #3
	ldr	r3, .L399+252
	str	r2, [r3, #68]
	ldr	r3, [fp, #-196]
	mov	r3, r3, lsr #9
	and	r2, r3, #1
	ldr	r3, .L399+252
	str	r2, [r3, #60]
	ldr	r3, .L399+252
	ldr	r2, [fp, #-120]
	str	r2, [r3, #80]
	ldr	r3, [fp, #-196]
	mov	r3, r3, lsr #14
	and	r2, r3, #1
	ldr	r3, .L399+252
	str	r2, [r3, #84]
	ldr	r3, [fp, #-120]
	cmp	r3, #3
	bne	.L335
	ldr	r3, .L399+252
	mov	r2, #1
	str	r2, [r3, #76]
	ldr	r3, .L399+252
	mov	r2, #4
	str	r2, [r3, #56]
	ldr	r3, .L399+252
	mov	r2, #2
	str	r2, [r3, #72]
	ldr	r2, [fp, #-116]
	ldr	r3, .L399+216
	cmp	r2, r3
	bne	.L336
	ldr	r3, .L399+252
	mov	r2, #1
	str	r2, [r3, #64]
	b	.L338
.L336:
	ldr	r3, .L399+252
	mov	r2, #0
	str	r2, [r3, #64]
	b	.L338
.L335:
	ldr	r3, .L399+196
	ldrh	r3, [r3, #0]
	str	r3, [fp, #-112]
	ldr	r3, [fp, #-112]
	mov	r3, r3, asl #18
	mov	r3, r3, lsr #18
	str	r3, [fp, #-112]
	ldr	r3, [fp, #-112]
	cmp	r3, #0
	bne	.L339
	mov	r3, #16384
	str	r3, [fp, #-112]
.L339:
	ldr	r3, .L399+252
	ldr	r2, [fp, #-112]
	str	r2, [r3, #56]
	ldr	r3, [fp, #-196]
	mov	r3, r3, lsr #10
	and	r2, r3, #1
	ldr	r3, .L399+252
	str	r2, [r3, #76]
	ldr	r3, [fp, #-196]
	mov	r3, r3, lsr #5
	and	r2, r3, #3
	ldr	r3, .L399+252
	str	r2, [r3, #72]
.L338:
	ldr	r3, .L399+204
	ldr	r2, [fp, #-196]
	mov	r2, r2, asl #16
	mov	r2, r2, lsr #16
	strh	r2, [r3, #0]	@ movhi
	ldr	r3, [fp, #-120]
	cmp	r3, #0
	bne	.L390
	ldr	r0, .L399+200
	bl	dma_transfer
	mov	r3, r0
	b	.L331
.L333:
	ldr	r3, .L399+252
	mov	r2, #4
	str	r2, [r3, #80]
	ldr	r3, .L399+252
	mov	r2, #2
	str	r2, [r3, #64]
	ldr	r3, .L399+204
	ldr	r2, [fp, #-196]
	mov	r2, r2, asl #16
	mov	r2, r2, lsr #16
	strh	r2, [r3, #0]	@ movhi
	b	.L308
.L278:
	ldr	r3, [fp, #-196]
	and	r3, r3, #32768
	cmp	r3, #0
	beq	.L341
	ldr	r3, .L399+252
	ldr	r3, [r3, #124]
	cmp	r3, #4
	bne	.L391
	ldr	r3, [fp, #-196]
	mov	r3, r3, lsr #12
	and	r3, r3, #3
	str	r3, [fp, #-108]
	ldr	r3, .L399+208
	ldr	r3, [r3, #0]
	bic	r3, r3, #-268435456
	str	r3, [fp, #-104]
	ldr	r3, .L399+252
	mov	r2, #2
	str	r2, [r3, #88]
	ldr	r3, .L399+212
	ldr	r3, [r3, #0]
	bic	r2, r3, #-268435456
	ldr	r3, .L399+252
	str	r2, [r3, #92]
	ldr	r3, .L399+252
	ldr	r2, [fp, #-104]
	str	r2, [r3, #96]
	ldr	r3, [fp, #-196]
	mov	r3, r3, lsr #7
	and	r2, r3, #3
	ldr	r3, .L399+252
	str	r2, [r3, #112]
	ldr	r3, [fp, #-196]
	mov	r3, r3, lsr #9
	and	r2, r3, #1
	ldr	r3, .L399+252
	str	r2, [r3, #104]
	ldr	r3, .L399+252
	ldr	r2, [fp, #-108]
	str	r2, [r3, #124]
	ldr	r3, [fp, #-196]
	mov	r3, r3, lsr #14
	and	r2, r3, #1
	ldr	r3, .L399+252
	str	r2, [r3, #128]
	ldr	r3, [fp, #-108]
	cmp	r3, #3
	bne	.L343
	ldr	r3, .L399+252
	mov	r2, #1
	str	r2, [r3, #120]
	ldr	r3, .L399+252
	mov	r2, #4
	str	r2, [r3, #100]
	ldr	r3, .L399+252
	mov	r2, #2
	str	r2, [r3, #116]
	ldr	r2, [fp, #-104]
	ldr	r3, .L399+216
	cmp	r2, r3
	bne	.L344
	ldr	r3, .L399+252
	mov	r2, #1
	str	r2, [r3, #108]
	b	.L346
.L344:
	ldr	r3, .L399+252
	mov	r2, #0
	str	r2, [r3, #108]
	b	.L346
.L343:
	ldr	r3, .L399+220
	ldrh	r3, [r3, #0]
	str	r3, [fp, #-100]
	ldr	r3, [fp, #-100]
	mov	r3, r3, asl #18
	mov	r3, r3, lsr #18
	str	r3, [fp, #-100]
	ldr	r3, [fp, #-100]
	cmp	r3, #0
	bne	.L347
	mov	r3, #16384
	str	r3, [fp, #-100]
.L347:
	ldr	r3, .L399+252
	ldr	r2, [fp, #-100]
	str	r2, [r3, #100]
	ldr	r3, [fp, #-196]
	mov	r3, r3, lsr #10
	and	r2, r3, #1
	ldr	r3, .L399+252
	str	r2, [r3, #120]
	ldr	r3, [fp, #-196]
	mov	r3, r3, lsr #5
	and	r2, r3, #3
	ldr	r3, .L399+252
	str	r2, [r3, #116]
.L346:
	ldr	r3, .L399+228
	ldr	r2, [fp, #-196]
	mov	r2, r2, asl #16
	mov	r2, r2, lsr #16
	strh	r2, [r3, #0]	@ movhi
	ldr	r3, [fp, #-108]
	cmp	r3, #0
	bne	.L392
	ldr	r0, .L399+224
	bl	dma_transfer
	mov	r3, r0
	b	.L331
.L341:
	ldr	r3, .L399+252
	mov	r2, #4
	str	r2, [r3, #124]
	ldr	r3, .L399+252
	mov	r2, #2
	str	r2, [r3, #108]
	ldr	r3, .L399+228
	ldr	r2, [fp, #-196]
	mov	r2, r2, asl #16
	mov	r2, r2, lsr #16
	strh	r2, [r3, #0]	@ movhi
	b	.L308
.L279:
	ldr	r3, [fp, #-196]
	and	r3, r3, #32768
	cmp	r3, #0
	beq	.L349
	ldr	r3, .L399+252
	ldr	r3, [r3, #168]
	cmp	r3, #4
	bne	.L393
	ldr	r3, [fp, #-196]
	mov	r3, r3, lsr #12
	and	r3, r3, #3
	str	r3, [fp, #-96]
	ldr	r3, .L399+232
	ldr	r3, [r3, #0]
	bic	r3, r3, #-268435456
	str	r3, [fp, #-92]
	ldr	r3, .L399+252
	mov	r2, #3
	str	r2, [r3, #132]
	ldr	r3, .L399+236
	ldr	r3, [r3, #0]
	bic	r2, r3, #-268435456
	ldr	r3, .L399+252
	str	r2, [r3, #136]
	ldr	r3, .L399+252
	ldr	r2, [fp, #-92]
	str	r2, [r3, #140]
	ldr	r3, [fp, #-196]
	mov	r3, r3, lsr #7
	and	r2, r3, #3
	ldr	r3, .L399+252
	str	r2, [r3, #156]
	ldr	r3, [fp, #-196]
	mov	r3, r3, lsr #9
	and	r2, r3, #1
	ldr	r3, .L399+252
	str	r2, [r3, #148]
	ldr	r3, .L399+252
	ldr	r2, [fp, #-96]
	str	r2, [r3, #168]
	ldr	r3, [fp, #-196]
	mov	r3, r3, lsr #14
	and	r2, r3, #1
	ldr	r3, .L399+252
	str	r2, [r3, #172]
	ldr	r3, .L399+240
	ldrh	r3, [r3, #0]
	str	r3, [fp, #-88]
	ldr	r3, [fp, #-92]
	mov	r3, r3, lsr #24
	cmp	r3, #13
	bne	.L351
	ldr	r3, [fp, #-88]
	and	r3, r3, #31
	cmp	r3, #17
	bne	.L351
	ldr	r3, .L399+244
	mov	r2, #1
	str	r2, [r3, #0]
.L351:
	ldr	r3, [fp, #-88]
	cmp	r3, #0
	bne	.L352
	mov	r3, #65536
	str	r3, [fp, #-88]
.L352:
	ldr	r3, .L399+252
	ldr	r2, [fp, #-88]
	str	r2, [r3, #144]
	ldr	r3, [fp, #-196]
	mov	r3, r3, lsr #10
	and	r2, r3, #1
	ldr	r3, .L399+252
	str	r2, [r3, #164]
	ldr	r3, [fp, #-196]
	mov	r3, r3, lsr #5
	and	r2, r3, #3
	ldr	r3, .L399+252
	str	r2, [r3, #160]
	ldr	r3, .L399+256
	ldr	r2, [fp, #-196]
	mov	r2, r2, asl #16
	mov	r2, r2, lsr #16
	strh	r2, [r3, #0]	@ movhi
	ldr	r3, [fp, #-96]
	cmp	r3, #0
	bne	.L394
	ldr	r0, .L399+248
	bl	dma_transfer
	mov	r3, r0
	b	.L331
.L349:
	ldr	r3, .L399+252
	mov	r2, #4
	str	r2, [r3, #168]
	ldr	r3, .L399+252
	mov	r2, #2
	str	r2, [r3, #152]
	ldr	r3, .L399+256
	ldr	r2, [fp, #-196]
	mov	r2, r2, asl #16
	mov	r2, r2, lsr #16
	strh	r2, [r3, #0]	@ movhi
	b	.L308
.L280:
	ldr	r3, [fp, #-196]
	rsb	r2, r3, #65536
	ldr	r3, .L399+296
	str	r2, [r3, #4]
	ldr	r3, .L399+296
	ldr	r2, [r3, #4]
	ldr	r3, .L399+296
	ldr	r3, [r3, #8]
	mov	r3, r2, asl r3
	str	r3, [fp, #-84]
	ldr	r3, .L399+272
	ldr	r3, [r3, #0]
	ldr	r2, [fp, #-84]
	mul	r3, r2, r3
	mov	r0, r3
	bl	__aeabi_ui2d
	mov	r3, r0
	mov	r4, r1
	mov	r0, #0
	mov	r1, #1090519040
	add	r1, r1, #7340032
	mov	r2, r3
	mov	r3, r4
	bl	__aeabi_ddiv
	mov	r3, r0
	mov	r4, r1
	mov	r0, r3
	mov	r1, r4
	mov	r2, #0
	mov	r3, #1073741824
	add	r3, r3, #15728640
	bl	__aeabi_dmul
	mov	r3, r0
	mov	r4, r1
	mov	r0, r3
	mov	r1, r4
	bl	__aeabi_d2uiz
	mov	r2, r0
	ldr	r3, .L399+296
	str	r2, [r3, #16]
	b	.L308
.L282:
	ldr	r3, [fp, #-196]
	rsb	r2, r3, #65536
	ldr	r3, .L399+296
	str	r2, [r3, #36]
	ldr	r3, .L399+296
	ldr	r2, [r3, #36]
	ldr	r3, .L399+296
	ldr	r3, [r3, #40]
	mov	r3, r2, asl r3
	str	r3, [fp, #-80]
	ldr	r3, .L399+272
	ldr	r3, [r3, #0]
	ldr	r2, [fp, #-80]
	mul	r3, r2, r3
	mov	r0, r3
	bl	__aeabi_ui2d
	mov	r3, r0
	mov	r4, r1
	mov	r0, #0
	mov	r1, #1090519040
	add	r1, r1, #7340032
	mov	r2, r3
	mov	r3, r4
	bl	__aeabi_ddiv
	mov	r3, r0
	mov	r4, r1
	mov	r0, r3
	mov	r1, r4
	mov	r2, #0
	mov	r3, #1073741824
	add	r3, r3, #15728640
	bl	__aeabi_dmul
	mov	r3, r0
	mov	r4, r1
	mov	r0, r3
	mov	r1, r4
	bl	__aeabi_d2uiz
	mov	r2, r0
	ldr	r3, .L399+296
	str	r2, [r3, #48]
	b	.L308
.L284:
	ldr	r3, [fp, #-196]
	rsb	r2, r3, #65536
	ldr	r3, .L399+296
	str	r2, [r3, #68]
	b	.L308
.L286:
	ldr	r3, [fp, #-196]
	rsb	r2, r3, #65536
	ldr	r3, .L399+296
	str	r2, [r3, #100]
	b	.L308
.L281:
	ldr	r3, [fp, #-196]
	and	r3, r3, #128
	cmp	r3, #0
	beq	.L354
	ldr	r3, .L399+296
	ldr	r3, [r3, #28]
	cmp	r3, #0
	bne	.L395
	ldr	r3, [fp, #-196]
	and	r2, r3, #3
	ldr	r3, .L399+288
	ldr	r3, [r3, r2, asl #2]
	str	r3, [fp, #-68]
	ldr	r3, .L399+296
	ldr	r3, [r3, #4]
	str	r3, [fp, #-64]
	ldr	r3, [fp, #-196]
	mov	r3, r3, lsr #2
	and	r3, r3, #1
	and	r3, r3, #255
	cmp	r3, #0
	beq	.L356
	ldr	r3, .L399+296
	mov	r2, #2
	str	r2, [r3, #28]
	b	.L357
.L356:
	ldr	r3, .L399+296
	mov	r2, #1
	str	r2, [r3, #28]
.L357:
	ldr	r3, .L399+296
	ldr	r2, [fp, #-68]
	str	r2, [r3, #8]
	ldr	r3, [fp, #-196]
	mov	r3, r3, lsr #6
	and	r2, r3, #1
	ldr	r3, .L399+296
	str	r2, [r3, #24]
	ldr	r3, .L399+260
	ldr	r2, [fp, #-64]
	mov	r2, r2, asl #16
	mov	r2, r2, lsr #16
	rsb	r2, r2, #0
	mov	r2, r2, asl #16
	mov	r2, r2, lsr #16
	strh	r2, [r3, #0]	@ movhi
	ldr	r3, [fp, #-68]
	ldr	r2, [fp, #-64]
	mov	r3, r2, asl r3
	str	r3, [fp, #-64]
	ldr	r2, [fp, #-64]
	ldr	r3, .L399+296
	str	r2, [r3, #0]
	ldr	r3, .L399+300
	ldr	r3, [r3, #0]
	ldr	r2, [fp, #-64]
	cmp	r2, r3
	bcs	.L358
	ldr	r3, .L399+300
	ldr	r2, [fp, #-64]
	str	r2, [r3, #0]
.L358:
	ldr	r3, .L399+280
	ldr	r2, [r3, #0]
	ldr	r3, .L399+296
	ldr	r3, [r3, #12]
	rsb	r3, r3, r2
	mov	r0, r3
	bl	__aeabi_ui2f
	mov	r4, r0
	ldr	r3, .L399+272
	ldr	r3, [r3, #0]
	mov	r0, r3
	bl	__aeabi_ui2f
	mov	r3, r0
	mov	r0, r4
	mov	r1, r3
	bl	__aeabi_fmul
	mov	r3, r0
	mov	r0, r3
	bl	__aeabi_f2d
	mov	r3, r0
	mov	r4, r1
	mov	r0, r3
	mov	r1, r4
	mov	r2, #0
	mov	r3, #1090519040
	add	r3, r3, #7340032
	bl	__aeabi_ddiv
	mov	r3, r0
	mov	r4, r1
	mov	r0, r3
	mov	r1, r4
	bl	__aeabi_d2uiz
	mov	r3, r0
	mov	r3, r3, asl #1
	str	r3, [fp, #-60]
	ldr	r3, .L399+272
	ldr	r3, [r3, #0]
	ldr	r2, [fp, #-64]
	mul	r3, r2, r3
	mov	r0, r3
	bl	__aeabi_ui2d
	mov	r3, r0
	mov	r4, r1
	mov	r0, #0
	mov	r1, #1090519040
	add	r1, r1, #7340032
	mov	r2, r3
	mov	r3, r4
	bl	__aeabi_ddiv
	mov	r3, r0
	mov	r4, r1
	mov	r0, r3
	mov	r1, r4
	mov	r2, #0
	mov	r3, #1073741824
	add	r3, r3, #15728640
	bl	__aeabi_dmul
	mov	r3, r0
	mov	r4, r1
	mov	r0, r3
	mov	r1, r4
	bl	__aeabi_d2uiz
	mov	r2, r0
	ldr	r3, .L399+296
	str	r2, [r3, #16]
	ldr	r3, .L399+296
	ldr	r3, [r3, #20]
	and	r3, r3, #1
	and	r3, r3, #255
	cmp	r3, #0
	beq	.L359
	ldr	r3, .L399+276
	ldr	r2, [r3, #44]
	ldr	r3, [fp, #-60]
	add	r3, r2, r3
	mov	r3, r3, asl #16
	mov	r3, r3, lsr #16
	ldr	r2, .L399+276
	str	r3, [r2, #44]
.L359:
	ldr	r3, .L399+296
	ldr	r3, [r3, #20]
	and	r3, r3, #2
	cmp	r3, #0
	beq	.L360
	ldr	r3, .L399+276
	ldr	r2, [r3, #104]
	ldr	r3, [fp, #-60]
	add	r3, r2, r3
	mov	r3, r3, asl #16
	mov	r3, r3, lsr #16
	ldr	r2, .L399+276
	str	r3, [r2, #104]
	b	.L360
.L354:
	ldr	r3, .L399+296
	ldr	r3, [r3, #28]
	cmp	r3, #0
	beq	.L360
	ldr	r3, .L399+296
	mov	r2, #0
	str	r2, [r3, #28]
	ldr	r3, .L399+280
	ldr	r2, [r3, #0]
	ldr	r3, .L399+296
	str	r2, [r3, #12]
	b	.L360
.L395:
	mov	r0, r0	@ nop
.L360:
	ldr	r3, .L399+264
	ldr	r2, [fp, #-196]
	mov	r2, r2, asl #16
	mov	r2, r2, lsr #16
	strh	r2, [r3, #0]	@ movhi
	b	.L308
.L283:
	ldr	r3, [fp, #-196]
	and	r3, r3, #128
	cmp	r3, #0
	beq	.L361
	ldr	r3, .L399+296
	ldr	r3, [r3, #60]
	cmp	r3, #0
	bne	.L396
	ldr	r3, [fp, #-196]
	and	r2, r3, #3
	ldr	r3, .L399+288
	ldr	r3, [r3, r2, asl #2]
	str	r3, [fp, #-56]
	ldr	r3, .L399+296
	ldr	r3, [r3, #36]
	str	r3, [fp, #-52]
	ldr	r3, [fp, #-196]
	mov	r3, r3, lsr #2
	and	r3, r3, #1
	and	r3, r3, #255
	cmp	r3, #0
	beq	.L363
	ldr	r3, .L399+296
	mov	r2, #2
	str	r2, [r3, #60]
	b	.L364
.L363:
	ldr	r3, .L399+296
	mov	r2, #1
	str	r2, [r3, #60]
.L364:
	ldr	r3, .L399+296
	ldr	r2, [fp, #-56]
	str	r2, [r3, #40]
	ldr	r3, [fp, #-196]
	mov	r3, r3, lsr #6
	and	r2, r3, #1
	ldr	r3, .L399+296
	str	r2, [r3, #56]
	ldr	r3, .L399+268
	ldr	r2, [fp, #-52]
	mov	r2, r2, asl #16
	mov	r2, r2, lsr #16
	rsb	r2, r2, #0
	mov	r2, r2, asl #16
	mov	r2, r2, lsr #16
	strh	r2, [r3, #0]	@ movhi
	ldr	r3, [fp, #-56]
	ldr	r2, [fp, #-52]
	mov	r3, r2, asl r3
	str	r3, [fp, #-52]
	ldr	r2, [fp, #-52]
	ldr	r3, .L399+296
	str	r2, [r3, #32]
	ldr	r3, .L399+300
	ldr	r3, [r3, #0]
	ldr	r2, [fp, #-52]
	cmp	r2, r3
	bcs	.L365
	ldr	r3, .L399+300
	ldr	r2, [fp, #-52]
	str	r2, [r3, #0]
.L365:
	ldr	r3, .L399+280
	ldr	r2, [r3, #0]
	ldr	r3, .L399+296
	ldr	r3, [r3, #44]
	rsb	r3, r3, r2
	mov	r0, r3
	bl	__aeabi_ui2f
	mov	r4, r0
	ldr	r3, .L399+272
	ldr	r3, [r3, #0]
	mov	r0, r3
	bl	__aeabi_ui2f
	mov	r3, r0
	mov	r0, r4
	mov	r1, r3
	bl	__aeabi_fmul
	mov	r3, r0
	mov	r0, r3
	bl	__aeabi_f2d
	mov	r3, r0
	mov	r4, r1
	mov	r0, r3
	mov	r1, r4
	mov	r2, #0
	mov	r3, #1090519040
	add	r3, r3, #7340032
	bl	__aeabi_ddiv
	mov	r3, r0
	mov	r4, r1
	mov	r0, r3
	mov	r1, r4
	bl	__aeabi_d2uiz
	mov	r3, r0
	mov	r3, r3, asl #1
	str	r3, [fp, #-48]
	ldr	r3, .L399+272
	ldr	r3, [r3, #0]
	ldr	r2, [fp, #-52]
	mul	r3, r2, r3
	mov	r0, r3
	bl	__aeabi_ui2d
	mov	r3, r0
	mov	r4, r1
	mov	r0, #0
	mov	r1, #1090519040
	add	r1, r1, #7340032
	mov	r2, r3
	mov	r3, r4
	bl	__aeabi_ddiv
	mov	r3, r0
	mov	r4, r1
	mov	r0, r3
	mov	r1, r4
	mov	r2, #0
	mov	r3, #1073741824
	add	r3, r3, #15728640
	bl	__aeabi_dmul
	mov	r3, r0
	mov	r4, r1
	mov	r0, r3
	mov	r1, r4
	bl	__aeabi_d2uiz
	mov	r2, r0
	ldr	r3, .L399+296
	str	r2, [r3, #48]
	ldr	r3, .L399+296
	ldr	r3, [r3, #52]
	and	r3, r3, #1
	and	r3, r3, #255
	cmp	r3, #0
	beq	.L366
	ldr	r3, .L399+276
	ldr	r2, [r3, #44]
	ldr	r3, [fp, #-48]
	add	r3, r2, r3
	mov	r3, r3, asl #16
	mov	r3, r3, lsr #16
	ldr	r2, .L399+276
	str	r3, [r2, #44]
.L366:
	ldr	r3, .L399+296
	ldr	r3, [r3, #52]
	and	r3, r3, #2
	cmp	r3, #0
	beq	.L367
	ldr	r3, .L399+276
	ldr	r2, [r3, #104]
	ldr	r3, [fp, #-48]
	add	r3, r2, r3
	mov	r3, r3, asl #16
	mov	r3, r3, lsr #16
	ldr	r2, .L399+276
	str	r3, [r2, #104]
	b	.L367
.L361:
	ldr	r3, .L399+296
	ldr	r3, [r3, #60]
	cmp	r3, #0
	beq	.L367
	ldr	r3, .L399+296
	mov	r2, #0
	str	r2, [r3, #60]
	ldr	r3, .L399+280
	ldr	r2, [r3, #0]
	ldr	r3, .L399+296
	str	r2, [r3, #44]
	b	.L367
.L396:
	mov	r0, r0	@ nop
.L367:
	ldr	r3, .L399+284
	ldr	r2, [fp, #-196]
	mov	r2, r2, asl #16
	mov	r2, r2, lsr #16
	strh	r2, [r3, #0]	@ movhi
	b	.L308
.L285:
	ldr	r3, [fp, #-196]
	and	r3, r3, #128
	cmp	r3, #0
	beq	.L368
	ldr	r3, .L399+296
	ldr	r3, [r3, #92]
	cmp	r3, #0
	bne	.L397
	ldr	r3, [fp, #-196]
	and	r2, r3, #3
	ldr	r3, .L399+288
	ldr	r3, [r3, r2, asl #2]
	str	r3, [fp, #-44]
	ldr	r3, .L399+296
	ldr	r3, [r3, #68]
	str	r3, [fp, #-40]
	ldr	r3, [fp, #-196]
	mov	r3, r3, lsr #2
	and	r3, r3, #1
	and	r3, r3, #255
	cmp	r3, #0
	beq	.L370
	ldr	r3, .L399+296
	mov	r2, #2
	str	r2, [r3, #92]
	b	.L371
.L370:
	ldr	r3, .L399+296
	mov	r2, #1
	str	r2, [r3, #92]
.L371:
	ldr	r3, .L399+296
	ldr	r2, [fp, #-44]
	str	r2, [r3, #72]
	ldr	r3, [fp, #-196]
	mov	r3, r3, lsr #6
	and	r2, r3, #1
	ldr	r3, .L399+296
	str	r2, [r3, #88]
	ldr	r3, .L399+292
	ldr	r2, [fp, #-40]
	mov	r2, r2, asl #16
	mov	r2, r2, lsr #16
	rsb	r2, r2, #0
	mov	r2, r2, asl #16
	mov	r2, r2, lsr #16
	strh	r2, [r3, #0]	@ movhi
	ldr	r3, [fp, #-44]
	ldr	r2, [fp, #-40]
	mov	r3, r2, asl r3
	str	r3, [fp, #-40]
	ldr	r2, [fp, #-40]
	ldr	r3, .L399+296
	str	r2, [r3, #64]
	ldr	r3, .L399+300
	ldr	r3, [r3, #0]
	ldr	r2, [fp, #-40]
	cmp	r2, r3
	bcs	.L373
	ldr	r3, .L399+300
	ldr	r2, [fp, #-40]
	str	r2, [r3, #0]
	b	.L373
.L368:
	ldr	r3, .L401
	ldr	r3, [r3, #92]
	cmp	r3, #0
	beq	.L373
	ldr	r3, .L401
	mov	r2, #0
	str	r2, [r3, #92]
	ldr	r3, .L401+4
	ldr	r2, [r3, #0]
	ldr	r3, .L401
	str	r2, [r3, #76]
	b	.L373
.L397:
	mov	r0, r0	@ nop
.L373:
	ldr	r3, .L401+8
	ldr	r2, [fp, #-196]
	mov	r2, r2, asl #16
	mov	r2, r2, lsr #16
	strh	r2, [r3, #0]	@ movhi
	b	.L308
.L287:
	ldr	r3, [fp, #-196]
	and	r3, r3, #128
	cmp	r3, #0
	beq	.L374
	ldr	r3, .L401
	ldr	r3, [r3, #124]
	cmp	r3, #0
	bne	.L398
	ldr	r3, [fp, #-196]
	and	r2, r3, #3
	ldr	r3, .L401+12
	ldr	r3, [r3, r2, asl #2]
	str	r3, [fp, #-32]
	ldr	r3, .L401
	ldr	r3, [r3, #100]
	str	r3, [fp, #-28]
	ldr	r3, [fp, #-196]
	mov	r3, r3, lsr #2
	and	r3, r3, #1
	and	r3, r3, #255
	cmp	r3, #0
	beq	.L376
	ldr	r3, .L401
	mov	r2, #2
	str	r2, [r3, #124]
	b	.L377
.L376:
	ldr	r3, .L401
	mov	r2, #1
	str	r2, [r3, #124]
.L377:
	ldr	r3, .L401
	ldr	r2, [fp, #-32]
	str	r2, [r3, #104]
	ldr	r3, [fp, #-196]
	mov	r3, r3, lsr #6
	and	r2, r3, #1
	ldr	r3, .L401
	str	r2, [r3, #120]
	ldr	r3, .L401+16
	ldr	r2, [fp, #-28]
	mov	r2, r2, asl #16
	mov	r2, r2, lsr #16
	rsb	r2, r2, #0
	mov	r2, r2, asl #16
	mov	r2, r2, lsr #16
	strh	r2, [r3, #0]	@ movhi
	ldr	r3, [fp, #-32]
	ldr	r2, [fp, #-28]
	mov	r3, r2, asl r3
	str	r3, [fp, #-28]
	ldr	r2, [fp, #-28]
	ldr	r3, .L401
	str	r2, [r3, #96]
	ldr	r3, .L401+20
	ldr	r3, [r3, #0]
	ldr	r2, [fp, #-28]
	cmp	r2, r3
	bcs	.L379
	ldr	r3, .L401+20
	ldr	r2, [fp, #-28]
	str	r2, [r3, #0]
	b	.L379
.L374:
	ldr	r3, .L401
	ldr	r3, [r3, #124]
	cmp	r3, #0
	beq	.L379
	ldr	r3, .L401
	mov	r2, #0
	str	r2, [r3, #124]
	ldr	r3, .L401+4
	ldr	r2, [r3, #0]
	ldr	r3, .L401
	str	r2, [r3, #108]
	b	.L379
.L398:
	mov	r0, r0	@ nop
.L379:
	ldr	r3, .L401+24
	ldr	r2, [fp, #-196]
	mov	r2, r2, asl #16
	mov	r2, r2, lsr #16
	strh	r2, [r3, #0]	@ movhi
	b	.L308
.L289:
	ldr	r3, .L401+28
	ldr	r2, .L401+28
	ldrh	r1, [r2, #0]
	ldr	r2, [fp, #-196]
	mov	r2, r2, asl #16
	mov	r2, r2, lsr #16
	mvn	r2, r2
	mov	r2, r2, asl #16
	mov	r2, r2, lsr #16
	and	r2, r1, r2
	mov	r2, r2, asl #16
	mov	r2, r2, lsr #16
	strh	r2, [r3, #0]	@ movhi
	b	.L308
.L291:
	ldr	r3, [fp, #-196]
	mov	r3, r3, lsr #8
	and	r3, r3, #1
	cmp	r3, #0
	bne	.L380
	ldr	r3, .L401+32
	ldr	r3, [r3, #0]
	add	r3, r3, #120
	mov	r2, #1
	str	r2, [r3, #0]
	b	.L381
.L380:
	ldr	r3, .L401+32
	ldr	r3, [r3, #0]
	add	r3, r3, #120
	mov	r2, #2
	str	r2, [r3, #0]
.L381:
	mov	r3, #1
	b	.L331
.L248:
	ldr	r2, [fp, #-192]
	ldr	r3, .L401+36
	add	r3, r2, r3
	ldr	r2, [fp, #-196]
	mov	r2, r2, asl #16
	mov	r2, r2, lsr #16
	strh	r2, [r3, #0]	@ movhi
	b	.L308
.L384:
	mov	r0, r0	@ nop
	b	.L308
.L385:
	mov	r0, r0	@ nop
	b	.L308
.L386:
	mov	r0, r0	@ nop
	b	.L308
.L387:
	mov	r0, r0	@ nop
	b	.L308
.L388:
	mov	r0, r0	@ nop
	b	.L308
.L389:
	mov	r0, r0	@ nop
	b	.L308
.L390:
	mov	r0, r0	@ nop
	b	.L308
.L391:
	mov	r0, r0	@ nop
	b	.L308
.L392:
	mov	r0, r0	@ nop
	b	.L308
.L393:
	mov	r0, r0	@ nop
	b	.L308
.L394:
	mov	r0, r0	@ nop
.L308:
	mov	r3, #0
.L331:
	mov	r0, r3
	sub	sp, fp, #16
	ldmfd	sp!, {r4, r5, r6, fp, pc}
.L402:
	.align	2
.L401:
	.word	timer
	.word	cpu_ticks
	.word	io_registers+266
	.word	prescale_table
	.word	io_registers+268
	.word	execute_cycles
	.word	io_registers+270
	.word	io_registers+514
	.word	reg
	.word	io_registers
	.size	write_io_register16, .-write_io_register16
	.align	2
	.global	write_io_register32
	.hidden	write_io_register32
	.type	write_io_register32, %function
write_io_register32:
	@ args = 0, pretend = 0, frame = 16
	@ frame_needed = 1, uses_anonymous_args = 0
	stmfd	sp!, {fp, lr}
	add	fp, sp, #4
	sub	sp, sp, #16
	str	r0, [fp, #-16]
	str	r1, [fp, #-20]
	ldr	r3, [fp, #-16]
	cmp	r3, #56
	beq	.L407
	cmp	r3, #56
	bhi	.L411
	cmp	r3, #40
	beq	.L405
	cmp	r3, #44
	beq	.L406
	b	.L404
.L411:
	cmp	r3, #160
	beq	.L409
	cmp	r3, #164
	beq	.L410
	cmp	r3, #60
	beq	.L408
	b	.L404
.L405:
	ldr	r3, [fp, #-20]
	mov	r3, r3, asl #4
	mov	r2, r3, asr #4
	ldr	r3, .L416
	str	r2, [r3, #0]
	ldr	r3, .L416+4
	ldr	r2, [fp, #-20]
	str	r2, [r3, #0]
	b	.L412
.L406:
	ldr	r3, [fp, #-20]
	mov	r3, r3, asl #4
	mov	r2, r3, asr #4
	ldr	r3, .L416+8
	str	r2, [r3, #0]
	ldr	r3, .L416+12
	ldr	r2, [fp, #-20]
	str	r2, [r3, #0]
	b	.L412
.L407:
	ldr	r3, [fp, #-20]
	mov	r3, r3, asl #4
	mov	r2, r3, asr #4
	ldr	r3, .L416
	str	r2, [r3, #4]
	ldr	r3, .L416+16
	ldr	r2, [fp, #-20]
	str	r2, [r3, #0]
	b	.L412
.L408:
	ldr	r3, [fp, #-20]
	mov	r3, r3, asl #4
	mov	r2, r3, asr #4
	ldr	r3, .L416+8
	str	r2, [r3, #4]
	ldr	r3, .L416+20
	ldr	r2, [fp, #-20]
	str	r2, [r3, #0]
	b	.L412
.L409:
	mov	r0, #0
	ldr	r1, [fp, #-20]
	bl	sound_timer_queue32
	b	.L412
.L410:
	mov	r0, #1
	ldr	r1, [fp, #-20]
	bl	sound_timer_queue32
	b	.L412
.L404:
	ldr	r3, [fp, #-20]
	mov	r3, r3, asl #16
	mov	r3, r3, lsr #16
	ldr	r0, [fp, #-16]
	mov	r1, r3
	bl	write_io_register16
	mov	r3, r0
	str	r3, [fp, #-12]
	ldr	r3, [fp, #-16]
	add	r2, r3, #2
	ldr	r3, [fp, #-20]
	mov	r3, r3, lsr #16
	mov	r0, r2
	mov	r1, r3
	bl	write_io_register16
	mov	r3, r0
	str	r3, [fp, #-8]
	ldr	r3, [fp, #-8]
	cmp	r3, #0
	beq	.L413
	ldr	r3, [fp, #-8]
	b	.L414
.L413:
	ldr	r3, [fp, #-12]
	b	.L414
.L412:
	mov	r3, #0
.L414:
	mov	r0, r3
	sub	sp, fp, #4
	ldmfd	sp!, {fp, pc}
.L417:
	.align	2
.L416:
	.word	affine_reference_x
	.word	io_registers+40
	.word	affine_reference_y
	.word	io_registers+44
	.word	io_registers+56
	.word	io_registers+60
	.size	write_io_register32, .-write_io_register32
	.align	2
	.global	write_backup
	.hidden	write_backup
	.type	write_backup, %function
write_backup:
	@ args = 0, pretend = 0, frame = 8
	@ frame_needed = 1, uses_anonymous_args = 0
	stmfd	sp!, {fp, lr}
	add	fp, sp, #4
	sub	sp, sp, #8
	str	r0, [fp, #-8]
	str	r1, [fp, #-12]
	ldr	r3, [fp, #-12]
	and	r3, r3, #255
	str	r3, [fp, #-12]
	ldr	r3, .L452
	ldr	r3, [r3, #0]
	cmp	r3, #3
	bne	.L419
	ldr	r3, .L452
	mov	r2, #0
	str	r2, [r3, #0]
.L419:
	ldr	r2, [fp, #-8]
	ldr	r3, .L452+4
	cmp	r2, r3
	bne	.L420
	ldr	r3, .L452+8
	ldr	r3, [r3, #0]
	cmp	r3, #3
	beq	.L420
	ldr	r3, .L452+12
	ldr	r3, [r3, #0]
	cmp	r3, #0
	bne	.L421
	ldr	r3, [fp, #-12]
	cmp	r3, #170
	bne	.L421
	ldr	r3, .L452
	mov	r2, #1
	str	r2, [r3, #0]
	ldr	r3, .L452+12
	mov	r2, #1
	str	r2, [r3, #0]
.L421:
	ldr	r3, .L452+12
	ldr	r3, [r3, #0]
	cmp	r3, #2
	bne	.L422
	ldr	r3, [fp, #-12]
	cmp	r3, #144
	beq	.L426
	cmp	r3, #144
	bhi	.L430
	cmp	r3, #16
	beq	.L424
	cmp	r3, #128
	beq	.L425
	b	.L423
.L430:
	cmp	r3, #176
	beq	.L428
	cmp	r3, #240
	beq	.L429
	cmp	r3, #160
	beq	.L427
	b	.L423
.L426:
	ldr	r3, .L452+8
	ldr	r3, [r3, #0]
	cmp	r3, #0
	bne	.L446
	ldr	r3, .L452+8
	mov	r2, #2
	str	r2, [r3, #0]
	b	.L423
.L425:
	ldr	r3, .L452+8
	ldr	r3, [r3, #0]
	cmp	r3, #0
	bne	.L447
	ldr	r3, .L452+8
	mov	r2, #1
	str	r2, [r3, #0]
	b	.L423
.L429:
	ldr	r3, .L452+8
	ldr	r3, [r3, #0]
	cmp	r3, #2
	bne	.L448
	ldr	r3, .L452+8
	mov	r2, #0
	str	r2, [r3, #0]
	b	.L423
.L427:
	ldr	r3, .L452+8
	ldr	r3, [r3, #0]
	cmp	r3, #0
	bne	.L449
	ldr	r3, .L452+8
	mov	r2, #3
	str	r2, [r3, #0]
	b	.L423
.L428:
	ldr	r3, .L452+16
	mov	r2, #1
	str	r2, [r3, #0]
	ldr	r3, .L452+8
	ldr	r3, [r3, #0]
	cmp	r3, #0
	bne	.L450
	ldr	r3, .L452+8
	mov	r2, #4
	str	r2, [r3, #0]
	b	.L423
.L424:
	ldr	r3, .L452+8
	ldr	r3, [r3, #0]
	cmp	r3, #1
	bne	.L423
	ldr	r3, .L452+16
	ldr	r3, [r3, #0]
	cmp	r3, #0
	bne	.L436
	ldr	r0, .L452+20
	mov	r1, #255
	mov	r2, #65536
	bl	memset
	b	.L437
.L436:
	ldr	r0, .L452+20
	mov	r1, #255
	mov	r2, #131072
	bl	memset
.L437:
	ldr	r3, .L452+24
	ldr	r2, [r3, #0]
	ldr	r3, .L452+28
	str	r2, [r3, #0]
	ldr	r3, .L452+8
	mov	r2, #0
	str	r2, [r3, #0]
	b	.L423
.L446:
	mov	r0, r0	@ nop
	b	.L423
.L447:
	mov	r0, r0	@ nop
	b	.L423
.L448:
	mov	r0, r0	@ nop
	b	.L423
.L449:
	mov	r0, r0	@ nop
	b	.L423
.L450:
	mov	r0, r0	@ nop
.L423:
	ldr	r3, .L452+12
	mov	r2, #0
	str	r2, [r3, #0]
.L422:
	ldr	r3, .L452
	ldr	r3, [r3, #0]
	cmp	r3, #0
	bne	.L451
	ldr	r3, [fp, #-12]
	and	r1, r3, #255
	ldr	r2, .L452+20
	ldr	r3, .L452+4
	strb	r1, [r2, r3]
	b	.L445
.L420:
	ldr	r2, [fp, #-8]
	ldr	r3, .L452+32
	cmp	r2, r3
	bne	.L440
	ldr	r3, [fp, #-12]
	cmp	r3, #85
	bne	.L440
	ldr	r3, .L452+12
	ldr	r3, [r3, #0]
	cmp	r3, #1
	bne	.L440
	ldr	r3, .L452+12
	mov	r2, #2
	str	r2, [r3, #0]
	b	.L445
.L440:
	ldr	r3, .L452+12
	ldr	r3, [r3, #0]
	cmp	r3, #2
	bne	.L441
	ldr	r3, .L452+8
	ldr	r3, [r3, #0]
	cmp	r3, #1
	bne	.L441
	ldr	r3, [fp, #-12]
	cmp	r3, #48
	bne	.L441
	ldr	r3, .L452+36
	ldr	r2, [r3, #0]
	ldr	r3, [fp, #-8]
	and	r3, r3, #61440
	add	r3, r2, r3
	mov	r0, r3
	mov	r1, #255
	mov	r2, #4096
	bl	memset
	ldr	r3, .L452+24
	ldr	r2, [r3, #0]
	ldr	r3, .L452+28
	str	r2, [r3, #0]
	ldr	r3, .L452+8
	mov	r2, #0
	str	r2, [r3, #0]
	ldr	r3, .L452+12
	mov	r2, #0
	str	r2, [r3, #0]
	b	.L445
.L441:
	ldr	r3, .L452+12
	ldr	r3, [r3, #0]
	cmp	r3, #0
	bne	.L442
	ldr	r3, .L452+8
	ldr	r3, [r3, #0]
	cmp	r3, #4
	bne	.L442
	ldr	r3, [fp, #-8]
	cmp	r3, #0
	bne	.L442
	ldr	r3, .L452+16
	ldr	r3, [r3, #0]
	cmp	r3, #1
	bne	.L442
	ldr	r3, [fp, #-12]
	and	r3, r3, #1
	mov	r2, r3, asl #16
	ldr	r3, .L452+20
	add	r2, r2, r3
	ldr	r3, .L452+36
	str	r2, [r3, #0]
	ldr	r3, .L452+8
	mov	r2, #0
	str	r2, [r3, #0]
	b	.L445
.L442:
	ldr	r3, .L452+12
	ldr	r3, [r3, #0]
	cmp	r3, #0
	bne	.L443
	ldr	r3, .L452+8
	ldr	r3, [r3, #0]
	cmp	r3, #3
	bne	.L443
	ldr	r3, .L452+24
	ldr	r2, [r3, #0]
	ldr	r3, .L452+28
	str	r2, [r3, #0]
	ldr	r3, .L452+36
	ldr	r2, [r3, #0]
	ldr	r3, [fp, #-8]
	add	r3, r2, r3
	ldr	r2, [fp, #-12]
	and	r2, r2, #255
	strb	r2, [r3, #0]
	ldr	r3, .L452+8
	mov	r2, #0
	str	r2, [r3, #0]
	b	.L445
.L443:
	ldr	r3, .L452
	ldr	r3, [r3, #0]
	cmp	r3, #0
	bne	.L445
	ldr	r3, .L452+24
	ldr	r2, [r3, #0]
	ldr	r3, .L452+28
	str	r2, [r3, #0]
	ldr	r2, [fp, #-8]
	ldr	r3, .L452+40
	cmp	r2, r3
	bls	.L444
	ldr	r3, .L452+44
	mov	r2, #1
	str	r2, [r3, #0]
.L444:
	ldr	r3, [fp, #-8]
	ldr	r2, [fp, #-12]
	and	r1, r2, #255
	ldr	r2, .L452+20
	strb	r1, [r2, r3]
	b	.L445
.L451:
	mov	r0, r0	@ nop
.L445:
	sub	sp, fp, #4
	ldmfd	sp!, {fp, pc}
.L453:
	.align	2
.L452:
	.word	backup_type
	.word	21845
	.word	flash_mode
	.word	flash_command_position
	.word	flash_size
	.word	gamepak_backup
	.word	write_backup_delay
	.word	backup_update
	.word	10922
	.word	flash_bank_ptr
	.word	32767
	.word	sram_size
	.size	write_backup, .-write_backup
	.hidden	rtc_state
	.global	rtc_state
	.bss
	.align	2
	.type	rtc_state, %object
	.size	rtc_state, 4
rtc_state:
	.space	4
	.hidden	rtc_write_mode
	.comm	rtc_write_mode,4,4
	.hidden	rtc_registers
	.comm	rtc_registers,3,4
	.hidden	rtc_command
	.comm	rtc_command,4,4
	.hidden	rtc_data
	.comm	rtc_data,48,4
	.hidden	rtc_status
	.global	rtc_status
	.data
	.align	2
	.type	rtc_status, %object
	.size	rtc_status, 4
rtc_status:
	.word	64
	.hidden	rtc_data_bytes
	.comm	rtc_data_bytes,4,4
	.hidden	rtc_bit_count
	.comm	rtc_bit_count,4,4
	.text
	.align	2
	.global	encode_bcd
	.hidden	encode_bcd
	.type	encode_bcd, %function
encode_bcd:
	@ args = 0, pretend = 0, frame = 8
	@ frame_needed = 1, uses_anonymous_args = 0
	@ link register save eliminated.
	str	fp, [sp, #-4]!
	add	fp, sp, #0
	sub	sp, sp, #12
	mov	r3, r0
	strb	r3, [fp, #-5]
	ldrb	r2, [fp, #-5]	@ zero_extendqisi2
	ldr	r3, .L456
	umull	r1, r3, r2, r3
	mov	r3, r3, lsr #3
	and	r3, r3, #255
	mov	r0, r3, asl #4
	ldrb	r2, [fp, #-5]	@ zero_extendqisi2
	ldr	r3, .L456
	umull	r1, r3, r2, r3
	mov	r1, r3, lsr #3
	mov	r3, r1
	mov	r3, r3, asl #2
	add	r3, r3, r1
	mov	r3, r3, asl #1
	rsb	r3, r3, r2
	and	r3, r3, #255
	orr	r3, r0, r3
	mov	r0, r3
	add	sp, fp, #0
	ldmfd	sp!, {fp}
	bx	lr
.L457:
	.align	2
.L456:
	.word	-858993459
	.size	encode_bcd, .-encode_bcd
	.align	2
	.global	write_rtc
	.hidden	write_rtc
	.type	write_rtc, %function
write_rtc:
	@ args = 0, pretend = 0, frame = 48
	@ frame_needed = 1, uses_anonymous_args = 0
	stmfd	sp!, {fp, lr}
	add	fp, sp, #4
	sub	sp, sp, #48
	str	r0, [fp, #-48]
	str	r1, [fp, #-52]
	ldr	r3, [fp, #-52]
	mov	r3, r3, asl #16
	mov	r3, r3, lsr #16
	str	r3, [fp, #-52]
	ldr	r3, [fp, #-48]
	cmp	r3, #198
	beq	.L461
	cmp	r3, #200
	beq	.L462
	cmp	r3, #196
	bne	.L493
.L460:
	ldr	r3, .L497
	ldr	r3, [r3, #0]
	cmp	r3, #0
	bne	.L463
	ldr	r3, .L497
	mov	r2, #1
	str	r2, [r3, #0]
.L463:
	ldr	r3, .L497+4
	ldrb	r3, [r3, #0]	@ zero_extendqisi2
	and	r3, r3, #4
	cmp	r3, #0
	bne	.L464
	ldr	r3, .L497+4
	ldrb	r3, [r3, #0]	@ zero_extendqisi2
	and	r2, r3, #2
	ldr	r3, [fp, #-52]
	bic	r3, r3, #2
	orr	r3, r2, r3
	str	r3, [fp, #-52]
.L464:
	ldr	r3, .L497+4
	ldrb	r3, [r3, #2]	@ zero_extendqisi2
	and	r3, r3, #1
	and	r3, r3, #255
	cmp	r3, #0
	beq	.L465
	ldr	r3, .L497
	ldr	r3, [r3, #0]
	cmp	r3, #1
	bne	.L466
	ldr	r3, .L497+4
	ldrb	r3, [r3, #0]	@ zero_extendqisi2
	cmp	r3, #1
	bne	.L466
	ldr	r3, [fp, #-52]
	cmp	r3, #5
	bne	.L466
	ldr	r3, .L497+8
	str	r3, [fp, #-28]
	ldr	r3, [fp, #-52]
	and	r2, r3, #255
	ldr	r3, .L497+4
	strb	r2, [r3, #0]
	ldr	r3, [fp, #-28]
	mov	r3, r3, lsr #15
	str	r3, [fp, #-32]
	ldr	r2, [fp, #-32]
	ldr	r3, .L497+12
	ldr	r3, [r3, r2, asl #2]
	str	r3, [fp, #-24]
	ldr	r3, [fp, #-24]
	cmp	r3, #0
	bne	.L467
	ldr	r3, [fp, #-32]
	mov	r3, r3, asl #22
	mov	r3, r3, lsr #22
	mov	r0, r3
	bl	load_gamepak_page
	mov	r3, r0
	str	r3, [fp, #-24]
.L467:
	ldr	r3, [fp, #-28]
	mov	r3, r3, asl #17
	mov	r3, r3, lsr #17
	ldr	r2, [fp, #-24]
	add	r3, r3, r2
	ldr	r2, [fp, #-52]
	mov	r2, r2, asl #16
	mov	r2, r2, lsr #16
	strh	r2, [r3, #0]	@ movhi
	ldr	r3, .L497
	mov	r2, #2
	str	r2, [r3, #0]
	ldr	r3, .L497+16
	mov	r2, #0
	str	r2, [r3, #0]
	ldr	r3, .L497+20
	mov	r2, #7
	str	r2, [r3, #0]
	b	.L468
.L466:
	ldr	r3, .L497+8
	str	r3, [fp, #-28]
	ldr	r3, [fp, #-52]
	and	r2, r3, #255
	ldr	r3, .L497+4
	strb	r2, [r3, #0]
	ldr	r3, [fp, #-28]
	mov	r3, r3, lsr #15
	str	r3, [fp, #-32]
	ldr	r2, [fp, #-32]
	ldr	r3, .L497+12
	ldr	r3, [r3, r2, asl #2]
	str	r3, [fp, #-24]
	ldr	r3, [fp, #-24]
	cmp	r3, #0
	bne	.L469
	ldr	r3, [fp, #-32]
	mov	r3, r3, asl #22
	mov	r3, r3, lsr #22
	mov	r0, r3
	bl	load_gamepak_page
	mov	r3, r0
	str	r3, [fp, #-24]
.L469:
	ldr	r3, [fp, #-28]
	mov	r3, r3, asl #17
	mov	r3, r3, lsr #17
	ldr	r2, [fp, #-24]
	add	r3, r3, r2
	ldr	r2, [fp, #-52]
	mov	r2, r2, asl #16
	mov	r2, r2, lsr #16
	strh	r2, [r3, #0]	@ movhi
	ldr	r3, .L497
	ldr	r3, [r3, #0]
	cmp	r3, #3
	beq	.L471
	cmp	r3, #4
	beq	.L472
	cmp	r3, #2
	bne	.L494
.L470:
	ldr	r3, .L497+4
	ldrb	r3, [r3, #0]	@ zero_extendqisi2
	and	r3, r3, #1
	and	r3, r3, #255
	cmp	r3, #0
	beq	.L473
	ldr	r3, [fp, #-52]
	and	r3, r3, #2
	mov	r2, r3, lsr #1
	ldr	r3, .L497+20
	ldr	r3, [r3, #0]
	mov	r2, r2, asl r3
	ldr	r3, .L497+16
	ldr	r3, [r3, #0]
	orr	r2, r2, r3
	ldr	r3, .L497+16
	str	r2, [r3, #0]
	ldr	r3, .L497+20
	ldr	r3, [r3, #0]
	sub	r2, r3, #1
	ldr	r3, .L497+20
	str	r2, [r3, #0]
.L473:
	ldr	r3, .L497+20
	ldr	r3, [r3, #0]
	cmp	r3, #0
	bge	.L474
	ldr	r3, .L497+16
	ldr	r3, [r3, #0]
	sub	r3, r3, #96
	cmp	r3, #7
	ldrls	pc, [pc, r3, asl #2]
	b	.L475
.L481:
	.word	.L476
	.word	.L475
	.word	.L477
	.word	.L478
	.word	.L475
	.word	.L479
	.word	.L475
	.word	.L480
.L476:
	ldr	r3, .L497
	mov	r2, #1
	str	r2, [r3, #0]
	ldr	r0, .L497+4
	mov	r1, #0
	mov	r2, #3
	bl	memset
	b	.L475
.L477:
	ldr	r3, .L497
	mov	r2, #4
	str	r2, [r3, #0]
	ldr	r3, .L497+24
	mov	r2, #1
	str	r2, [r3, #0]
	ldr	r3, .L497+28
	mov	r2, #2
	str	r2, [r3, #0]
	b	.L475
.L478:
	ldr	r3, .L497
	mov	r2, #3
	str	r2, [r3, #0]
	ldr	r3, .L497+24
	mov	r2, #1
	str	r2, [r3, #0]
	ldr	r3, .L497+32
	ldr	r2, [r3, #0]
	ldr	r3, .L497+36
	str	r2, [r3, #0]
	b	.L475
.L479:
	sub	r3, fp, #36
	mov	r0, r3
	bl	time
	sub	r3, fp, #36
	mov	r0, r3
	bl	localtime
	mov	r3, r0
	str	r3, [fp, #-20]
	ldr	r3, [fp, #-20]
	ldr	r3, [r3, #24]
	str	r3, [fp, #-16]
	ldr	r3, [fp, #-16]
	cmp	r3, #0
	bne	.L482
	mov	r3, #6
	str	r3, [fp, #-16]
	b	.L483
.L482:
	ldr	r3, [fp, #-16]
	sub	r3, r3, #1
	str	r3, [fp, #-16]
.L483:
	ldr	r3, .L497
	mov	r2, #3
	str	r2, [r3, #0]
	ldr	r3, .L497+24
	mov	r2, #7
	str	r2, [r3, #0]
	ldr	r3, [fp, #-20]
	ldr	r1, [r3, #20]
	ldr	r3, .L497+40
	smull	r2, r3, r1, r3
	mov	r2, r3, asr #5
	mov	r3, r1, asr #31
	rsb	r2, r3, r2
	mov	r3, r2
	mov	r3, r3, asl #2
	add	r3, r3, r2
	mov	r2, r3, asl #2
	add	r3, r3, r2
	mov	r3, r3, asl #2
	rsb	r2, r3, r1
	and	r3, r2, #255
	mov	r0, r3
	bl	encode_bcd
	mov	r2, r0
	ldr	r3, .L497+36
	str	r2, [r3, #0]
	ldr	r3, [fp, #-20]
	ldr	r3, [r3, #16]
	and	r3, r3, #255
	add	r3, r3, #1
	and	r3, r3, #255
	mov	r0, r3
	bl	encode_bcd
	mov	r2, r0
	ldr	r3, .L497+36
	str	r2, [r3, #4]
	ldr	r3, [fp, #-20]
	ldr	r3, [r3, #12]
	and	r3, r3, #255
	mov	r0, r3
	bl	encode_bcd
	mov	r2, r0
	ldr	r3, .L497+36
	str	r2, [r3, #8]
	ldr	r3, [fp, #-16]
	and	r3, r3, #255
	mov	r0, r3
	bl	encode_bcd
	mov	r2, r0
	ldr	r3, .L497+36
	str	r2, [r3, #12]
	ldr	r3, [fp, #-20]
	ldr	r3, [r3, #8]
	and	r3, r3, #255
	mov	r0, r3
	bl	encode_bcd
	mov	r2, r0
	ldr	r3, .L497+36
	str	r2, [r3, #16]
	ldr	r3, [fp, #-20]
	ldr	r3, [r3, #4]
	and	r3, r3, #255
	mov	r0, r3
	bl	encode_bcd
	mov	r2, r0
	ldr	r3, .L497+36
	str	r2, [r3, #20]
	ldr	r3, [fp, #-20]
	ldr	r3, [r3, #0]
	and	r3, r3, #255
	mov	r0, r3
	bl	encode_bcd
	mov	r2, r0
	ldr	r3, .L497+36
	str	r2, [r3, #24]
	b	.L475
.L480:
	sub	r3, fp, #40
	mov	r0, r3
	bl	time
	sub	r3, fp, #40
	mov	r0, r3
	bl	localtime
	mov	r3, r0
	str	r3, [fp, #-12]
	ldr	r3, .L497
	mov	r2, #3
	str	r2, [r3, #0]
	ldr	r3, .L497+24
	mov	r2, #3
	str	r2, [r3, #0]
	ldr	r3, [fp, #-12]
	ldr	r3, [r3, #8]
	and	r3, r3, #255
	mov	r0, r3
	bl	encode_bcd
	mov	r2, r0
	ldr	r3, .L497+36
	str	r2, [r3, #0]
	ldr	r3, [fp, #-12]
	ldr	r3, [r3, #4]
	and	r3, r3, #255
	mov	r0, r3
	bl	encode_bcd
	mov	r2, r0
	ldr	r3, .L497+36
	str	r2, [r3, #4]
	ldr	r3, [fp, #-12]
	ldr	r3, [r3, #0]
	and	r3, r3, #255
	mov	r0, r3
	bl	encode_bcd
	mov	r2, r0
	ldr	r3, .L497+36
	str	r2, [r3, #8]
.L475:
	ldr	r3, .L497+20
	mov	r2, #0
	str	r2, [r3, #0]
.L474:
	b	.L468
.L472:
	ldr	r3, .L497+4
	ldrb	r3, [r3, #1]	@ zero_extendqisi2
	and	r3, r3, #2
	cmp	r3, #0
	beq	.L484
	ldr	r3, [fp, #-52]
	and	r3, r3, #1
	cmp	r3, #0
	bne	.L485
	ldr	r3, .L497+20
	ldr	r3, [r3, #0]
	mov	r2, r3, asr #3
	ldr	r3, .L497+20
	ldr	r3, [r3, #0]
	mov	r1, r3, asr #3
	ldr	r3, .L497+36
	ldr	r1, [r3, r1, asl #2]
	ldr	r3, [fp, #-52]
	and	r0, r3, #1
	ldr	r3, .L497+20
	ldr	r3, [r3, #0]
	mvn	r3, r3
	and	r3, r3, #7
	mov	r3, r0, asl r3
	orr	r1, r1, r3
	ldr	r3, .L497+36
	str	r1, [r3, r2, asl #2]
	b	.L484
.L485:
	ldr	r3, .L497+20
	ldr	r3, [r3, #0]
	add	r2, r3, #1
	ldr	r3, .L497+20
	str	r2, [r3, #0]
	ldr	r3, .L497+20
	ldr	r3, [r3, #0]
	mov	r2, r3
	ldr	r3, .L497+24
	ldr	r3, [r3, #0]
	mov	r3, r3, asl #3
	cmp	r2, r3
	bne	.L484
	ldr	r3, .L497
	mov	r2, #1
	str	r2, [r3, #0]
	ldr	r3, .L497+28
	ldr	r3, [r3, #0]
	cmp	r3, #2
	beq	.L486
	b	.L484
.L486:
	ldr	r3, .L497+36
	ldr	r2, [r3, #0]
	ldr	r3, .L497+32
	str	r2, [r3, #0]
.L484:
	b	.L468
.L471:
	ldr	r3, .L497+4
	ldrb	r3, [r3, #1]	@ zero_extendqisi2
	and	r3, r3, #2
	cmp	r3, #0
	bne	.L495
	ldr	r3, [fp, #-52]
	and	r3, r3, #1
	cmp	r3, #0
	bne	.L487
	ldr	r3, .L497+4
	ldrb	r3, [r3, #2]
	strb	r3, [fp, #-5]
	ldrb	r3, [fp, #-5]	@ zero_extendqisi2
	and	r3, r3, #253
	ldr	r2, .L497+20
	ldr	r2, [r2, #0]
	mov	r1, r2, asr #3
	ldr	r2, .L497+36
	ldr	r1, [r2, r1, asl #2]
	ldr	r2, .L497+20
	ldr	r2, [r2, #0]
	and	r2, r2, #7
	mov	r2, r1, lsr r2
	and	r2, r2, #255
	and	r2, r2, #1
	mov	r2, r2, asl #1
	and	r2, r2, #255
	orr	r3, r3, r2
	strb	r3, [fp, #-5]
	ldr	r3, .L497+8
	str	r3, [fp, #-28]
	ldr	r3, .L497+4
	ldrb	r2, [fp, #-5]
	strb	r2, [r3, #0]
	ldr	r3, [fp, #-28]
	mov	r3, r3, lsr #15
	str	r3, [fp, #-32]
	ldr	r2, [fp, #-32]
	ldr	r3, .L497+12
	ldr	r3, [r3, r2, asl #2]
	str	r3, [fp, #-24]
	ldr	r3, [fp, #-24]
	cmp	r3, #0
	bne	.L488
	ldr	r3, [fp, #-32]
	mov	r3, r3, asl #22
	mov	r3, r3, lsr #22
	mov	r0, r3
	bl	load_gamepak_page
	mov	r3, r0
	str	r3, [fp, #-24]
.L488:
	ldr	r3, [fp, #-28]
	mov	r3, r3, asl #17
	mov	r3, r3, lsr #17
	ldr	r2, [fp, #-24]
	add	r3, r3, r2
	ldrb	r2, [fp, #-5]	@ zero_extendqisi2
	strh	r2, [r3, #0]	@ movhi
	b	.L493
.L487:
	ldr	r3, .L497+20
	ldr	r3, [r3, #0]
	add	r2, r3, #1
	ldr	r3, .L497+20
	str	r2, [r3, #0]
	ldr	r3, .L497+20
	ldr	r3, [r3, #0]
	mov	r2, r3
	ldr	r3, .L497+24
	ldr	r3, [r3, #0]
	mov	r3, r3, asl #3
	cmp	r2, r3
	bne	.L496
	ldr	r3, .L497
	mov	r2, #1
	str	r2, [r3, #0]
	ldr	r0, .L497+4
	mov	r1, #0
	mov	r2, #3
	bl	memset
	b	.L493
.L468:
	b	.L493
.L465:
	ldr	r3, .L497+44
	str	r3, [fp, #-28]
	ldr	r3, [fp, #-52]
	and	r2, r3, #255
	ldr	r3, .L497+4
	strb	r2, [r3, #2]
	ldr	r3, [fp, #-28]
	mov	r3, r3, lsr #15
	str	r3, [fp, #-32]
	ldr	r2, [fp, #-32]
	ldr	r3, .L497+12
	ldr	r3, [r3, r2, asl #2]
	str	r3, [fp, #-24]
	ldr	r3, [fp, #-24]
	cmp	r3, #0
	bne	.L490
	ldr	r3, [fp, #-32]
	mov	r3, r3, asl #22
	mov	r3, r3, lsr #22
	mov	r0, r3
	bl	load_gamepak_page
	mov	r3, r0
	str	r3, [fp, #-24]
.L490:
	ldr	r3, [fp, #-28]
	mov	r3, r3, asl #17
	mov	r3, r3, lsr #17
	ldr	r2, [fp, #-24]
	add	r3, r3, r2
	ldr	r2, [fp, #-52]
	mov	r2, r2, asl #16
	mov	r2, r2, lsr #16
	strh	r2, [r3, #0]	@ movhi
	b	.L493
.L461:
	ldr	r3, .L497+48
	str	r3, [fp, #-28]
	ldr	r3, [fp, #-52]
	and	r2, r3, #255
	ldr	r3, .L497+4
	strb	r2, [r3, #1]
	ldr	r3, [fp, #-28]
	mov	r3, r3, lsr #15
	str	r3, [fp, #-32]
	ldr	r2, [fp, #-32]
	ldr	r3, .L497+12
	ldr	r3, [r3, r2, asl #2]
	str	r3, [fp, #-24]
	ldr	r3, [fp, #-24]
	cmp	r3, #0
	bne	.L491
	ldr	r3, [fp, #-32]
	mov	r3, r3, asl #22
	mov	r3, r3, lsr #22
	mov	r0, r3
	bl	load_gamepak_page
	mov	r3, r0
	str	r3, [fp, #-24]
.L491:
	ldr	r3, [fp, #-28]
	mov	r3, r3, asl #17
	mov	r3, r3, lsr #17
	ldr	r2, [fp, #-24]
	add	r3, r3, r2
	ldr	r2, [fp, #-52]
	mov	r2, r2, asl #16
	mov	r2, r2, lsr #16
	strh	r2, [r3, #0]	@ movhi
	b	.L493
.L462:
	ldr	r3, .L497+44
	str	r3, [fp, #-28]
	ldr	r3, [fp, #-52]
	and	r2, r3, #255
	ldr	r3, .L497+4
	strb	r2, [r3, #2]
	ldr	r3, [fp, #-28]
	mov	r3, r3, lsr #15
	str	r3, [fp, #-32]
	ldr	r2, [fp, #-32]
	ldr	r3, .L497+12
	ldr	r3, [r3, r2, asl #2]
	str	r3, [fp, #-24]
	ldr	r3, [fp, #-24]
	cmp	r3, #0
	bne	.L492
	ldr	r3, [fp, #-32]
	mov	r3, r3, asl #22
	mov	r3, r3, lsr #22
	mov	r0, r3
	bl	load_gamepak_page
	mov	r3, r0
	str	r3, [fp, #-24]
.L492:
	ldr	r3, [fp, #-28]
	mov	r3, r3, asl #17
	mov	r3, r3, lsr #17
	ldr	r2, [fp, #-24]
	add	r3, r3, r2
	ldr	r2, [fp, #-52]
	mov	r2, r2, asl #16
	mov	r2, r2, lsr #16
	strh	r2, [r3, #0]	@ movhi
	b	.L493
.L494:
	mov	r0, r0	@ nop
	b	.L493
.L495:
	mov	r0, r0	@ nop
	b	.L493
.L496:
	mov	r0, r0	@ nop
.L493:
	sub	sp, fp, #4
	ldmfd	sp!, {fp, pc}
.L498:
	.align	2
.L497:
	.word	rtc_state
	.word	rtc_registers
	.word	134217924
	.word	memory_map_read
	.word	rtc_command
	.word	rtc_bit_count
	.word	rtc_data_bytes
	.word	rtc_write_mode
	.word	rtc_status
	.word	rtc_data
	.word	1374389535
	.word	134217928
	.word	134217926
	.size	write_rtc, .-write_rtc
	.align	2
	.global	read_memory8
	.hidden	read_memory8
	.type	read_memory8, %function
read_memory8:
	@ args = 0, pretend = 0, frame = 32
	@ frame_needed = 1, uses_anonymous_args = 0
	stmfd	sp!, {fp, lr}
	add	fp, sp, #4
	sub	sp, sp, #32
	str	r0, [fp, #-32]
	ldr	r3, [fp, #-32]
	mov	r3, r3, lsr #24
	cmp	r3, #15
	ldrls	pc, [pc, r3, asl #2]
	b	.L500
.L511:
	.word	.L501
	.word	.L500
	.word	.L502
	.word	.L503
	.word	.L504
	.word	.L505
	.word	.L506
	.word	.L507
	.word	.L508
	.word	.L508
	.word	.L508
	.word	.L508
	.word	.L508
	.word	.L509
	.word	.L510
	.word	.L510
.L501:
	ldr	r3, .L524
	ldr	r3, [r3, #0]
	add	r3, r3, #60
	ldr	r2, [r3, #0]
	ldr	r3, .L524+4
	cmp	r2, r3
	bls	.L512
	ldr	r2, .L524+8
	ldr	r3, [fp, #-32]
	and	r3, r3, #3
	add	r3, r2, r3
	ldrb	r3, [r3, #0]
	strb	r3, [fp, #-21]
	b	.L514
.L512:
	ldr	r3, [fp, #-32]
	mov	r3, r3, asl #18
	mov	r3, r3, lsr #18
	ldr	r2, .L524+12
	add	r3, r3, r2
	ldrb	r3, [r3, #0]
	strb	r3, [fp, #-21]
	b	.L514
.L502:
	ldr	r3, [fp, #-32]
	mov	r3, r3, asl #17
	mov	r3, r3, lsr #17
	ldr	r2, [fp, #-32]
	and	r2, r2, #229376
	mov	r2, r2, asl #1
	add	r3, r3, r2
	add	r3, r3, #32768
	str	r3, [fp, #-32]
	ldr	r2, [fp, #-32]
	ldr	r3, .L524+16
	add	r3, r2, r3
	ldrb	r3, [r3, #0]
	strb	r3, [fp, #-21]
	b	.L514
.L503:
	ldr	r3, [fp, #-32]
	mov	r3, r3, asl #17
	mov	r3, r3, lsr #17
	add	r2, r3, #32768
	ldr	r3, .L524+20
	add	r3, r2, r3
	ldrb	r3, [r3, #0]
	strb	r3, [fp, #-21]
	b	.L514
.L504:
	ldr	r2, .L524+24
	ldr	r3, [fp, #-32]
	mov	r3, r3, asl #22
	mov	r3, r3, lsr #22
	add	r3, r2, r3
	ldrb	r3, [r3, #0]
	strb	r3, [fp, #-21]
	b	.L514
.L505:
	ldr	r2, .L524+28
	ldr	r3, [fp, #-32]
	mov	r3, r3, asl #22
	mov	r3, r3, lsr #22
	add	r3, r2, r3
	ldrb	r3, [r3, #0]
	strb	r3, [fp, #-21]
	b	.L514
.L506:
	ldr	r3, [fp, #-32]
	bic	r3, r3, #-16777216
	bic	r3, r3, #16646144
	str	r3, [fp, #-32]
	ldr	r3, [fp, #-32]
	cmp	r3, #98304
	bls	.L515
	ldr	r3, [fp, #-32]
	sub	r3, r3, #32768
	str	r3, [fp, #-32]
.L515:
	ldr	r2, [fp, #-32]
	ldr	r3, .L524+32
	add	r3, r2, r3
	ldrb	r3, [r3, #0]
	strb	r3, [fp, #-21]
	b	.L514
.L507:
	ldr	r2, .L524+36
	ldr	r3, [fp, #-32]
	mov	r3, r3, asl #22
	mov	r3, r3, lsr #22
	add	r3, r2, r3
	ldrb	r3, [r3, #0]
	strb	r3, [fp, #-21]
	b	.L514
.L508:
	ldr	r3, [fp, #-32]
	bic	r2, r3, #-33554432
	ldr	r3, .L524+40
	ldr	r3, [r3, #0]
	cmp	r2, r3
	bcc	.L516
	mov	r3, #0
	strb	r3, [fp, #-21]
	b	.L514
.L516:
	ldr	r3, [fp, #-32]
	mov	r3, r3, lsr #15
	str	r3, [fp, #-20]
	ldr	r2, [fp, #-20]
	ldr	r3, .L524+44
	ldr	r3, [r3, r2, asl #2]
	str	r3, [fp, #-16]
	ldr	r3, [fp, #-16]
	cmp	r3, #0
	bne	.L518
	ldr	r3, [fp, #-20]
	mov	r3, r3, asl #22
	mov	r3, r3, lsr #22
	mov	r0, r3
	bl	load_gamepak_page
	mov	r3, r0
	str	r3, [fp, #-16]
.L518:
	ldr	r3, [fp, #-32]
	mov	r3, r3, asl #17
	mov	r3, r3, lsr #17
	ldr	r2, [fp, #-16]
	add	r3, r3, r2
	ldrb	r3, [r3, #0]
	strb	r3, [fp, #-21]
	b	.L514
.L509:
	ldr	r3, [fp, #-32]
	bic	r2, r3, #-33554432
	ldr	r3, .L524+40
	ldr	r3, [r3, #0]
	cmp	r2, r3
	bcs	.L519
	ldr	r3, [fp, #-32]
	mov	r3, r3, lsr #15
	str	r3, [fp, #-12]
	ldr	r2, [fp, #-12]
	ldr	r3, .L524+44
	ldr	r3, [r3, r2, asl #2]
	str	r3, [fp, #-8]
	ldr	r3, [fp, #-8]
	cmp	r3, #0
	bne	.L520
	ldr	r3, [fp, #-12]
	mov	r3, r3, asl #22
	mov	r3, r3, lsr #22
	mov	r0, r3
	bl	load_gamepak_page
	mov	r3, r0
	str	r3, [fp, #-8]
.L520:
	ldr	r3, [fp, #-32]
	mov	r3, r3, asl #17
	mov	r3, r3, lsr #17
	ldr	r2, [fp, #-8]
	add	r3, r3, r2
	ldrb	r3, [r3, #0]
	strb	r3, [fp, #-21]
	b	.L514
.L519:
	bl	read_eeprom
	mov	r3, r0
	strb	r3, [fp, #-21]
	b	.L514
.L510:
	ldr	r3, [fp, #-32]
	mov	r3, r3, asl #16
	mov	r3, r3, lsr #16
	mov	r0, r3
	bl	read_backup
	mov	r3, r0
	strb	r3, [fp, #-21]
	b	.L514
.L500:
	ldr	r3, .L524
	ldr	r3, [r3, #0]
	add	r3, r3, #80
	ldr	r3, [r3, #0]
	and	r3, r3, #32
	cmp	r3, #0
	bne	.L522
	ldr	r3, .L524
	ldr	r3, [r3, #0]
	add	r3, r3, #60
	ldr	r2, [r3, #0]
	ldr	r3, [fp, #-32]
	and	r3, r3, #3
	add	r3, r2, r3
	add	r3, r3, #4
	mov	r0, r3
	bl	read_memory8
	mov	r3, r0
	strb	r3, [fp, #-21]
	b	.L514
.L522:
	ldr	r3, .L524
	ldr	r3, [r3, #0]
	add	r3, r3, #60
	ldr	r2, [r3, #0]
	ldr	r3, [fp, #-32]
	and	r3, r3, #1
	add	r3, r2, r3
	add	r3, r3, #2
	mov	r0, r3
	bl	read_memory8
	mov	r3, r0
	strb	r3, [fp, #-21]
.L514:
	ldrb	r3, [fp, #-21]	@ zero_extendqisi2
	mov	r0, r3
	sub	sp, fp, #4
	ldmfd	sp!, {fp, pc}
.L525:
	.align	2
.L524:
	.word	reg
	.word	16383
	.word	bios_read_protect
	.word	bios_rom
	.word	ewram
	.word	iwram
	.word	io_registers
	.word	palette_ram
	.word	vram
	.word	oam_ram
	.word	gamepak_size
	.word	memory_map_read
	.size	read_memory8, .-read_memory8
	.align	2
	.global	read_memory16_signed
	.hidden	read_memory16_signed
	.type	read_memory16_signed, %function
read_memory16_signed:
	@ args = 0, pretend = 0, frame = 32
	@ frame_needed = 1, uses_anonymous_args = 0
	stmfd	sp!, {fp, lr}
	add	fp, sp, #4
	sub	sp, sp, #32
	str	r0, [fp, #-32]
	ldr	r3, [fp, #-32]
	and	r3, r3, #1
	and	r3, r3, #255
	cmp	r3, #0
	beq	.L527
	ldr	r0, [fp, #-32]
	bl	read_memory8
	mov	r3, r0
	mov	r3, r3, asl #24
	mov	r3, r3, asr #24
	mov	r3, r3, asl #16
	mov	r3, r3, lsr #16
	b	.L528
.L527:
	ldr	r3, [fp, #-32]
	mov	r3, r3, lsr #24
	cmp	r3, #15
	ldrls	pc, [pc, r3, asl #2]
	b	.L529
.L540:
	.word	.L530
	.word	.L529
	.word	.L531
	.word	.L532
	.word	.L533
	.word	.L534
	.word	.L535
	.word	.L536
	.word	.L537
	.word	.L537
	.word	.L537
	.word	.L537
	.word	.L537
	.word	.L538
	.word	.L539
	.word	.L539
.L530:
	ldr	r3, .L553
	ldr	r3, [r3, #0]
	add	r3, r3, #60
	ldr	r2, [r3, #0]
	ldr	r3, .L553+4
	cmp	r2, r3
	bls	.L541
	ldr	r2, .L553+8
	ldr	r3, [fp, #-32]
	and	r3, r3, #3
	add	r3, r2, r3
	ldrh	r3, [r3, #0]	@ movhi
	strh	r3, [fp, #-22]	@ movhi
	b	.L543
.L541:
	ldr	r3, [fp, #-32]
	mov	r3, r3, asl #18
	mov	r3, r3, lsr #18
	ldr	r2, .L553+12
	add	r3, r3, r2
	ldrh	r3, [r3, #0]	@ movhi
	strh	r3, [fp, #-22]	@ movhi
	b	.L543
.L531:
	ldr	r3, [fp, #-32]
	mov	r3, r3, asl #17
	mov	r3, r3, lsr #17
	ldr	r2, [fp, #-32]
	and	r2, r2, #229376
	mov	r2, r2, asl #1
	add	r3, r3, r2
	add	r3, r3, #32768
	str	r3, [fp, #-32]
	ldr	r2, .L553+16
	ldr	r3, [fp, #-32]
	add	r3, r2, r3
	ldrh	r3, [r3, #0]	@ movhi
	strh	r3, [fp, #-22]	@ movhi
	b	.L543
.L532:
	ldr	r3, [fp, #-32]
	mov	r3, r3, asl #17
	mov	r3, r3, lsr #17
	add	r2, r3, #32768
	ldr	r3, .L553+20
	add	r3, r2, r3
	ldrh	r3, [r3, #0]	@ movhi
	strh	r3, [fp, #-22]	@ movhi
	b	.L543
.L533:
	ldr	r3, [fp, #-32]
	mov	r3, r3, asl #22
	mov	r3, r3, lsr #22
	ldr	r2, .L553+24
	add	r3, r3, r2
	ldrh	r3, [r3, #0]	@ movhi
	strh	r3, [fp, #-22]	@ movhi
	b	.L543
.L534:
	ldr	r3, [fp, #-32]
	mov	r3, r3, asl #22
	mov	r3, r3, lsr #22
	ldr	r2, .L553+28
	add	r3, r3, r2
	ldrh	r3, [r3, #0]	@ movhi
	strh	r3, [fp, #-22]	@ movhi
	b	.L543
.L535:
	ldr	r3, [fp, #-32]
	bic	r3, r3, #-16777216
	bic	r3, r3, #16646144
	str	r3, [fp, #-32]
	ldr	r3, [fp, #-32]
	cmp	r3, #98304
	bls	.L544
	ldr	r3, [fp, #-32]
	sub	r3, r3, #32768
	str	r3, [fp, #-32]
.L544:
	ldr	r2, .L553+32
	ldr	r3, [fp, #-32]
	add	r3, r2, r3
	ldrh	r3, [r3, #0]	@ movhi
	strh	r3, [fp, #-22]	@ movhi
	b	.L543
.L536:
	ldr	r3, [fp, #-32]
	mov	r3, r3, asl #22
	mov	r3, r3, lsr #22
	ldr	r2, .L553+36
	add	r3, r3, r2
	ldrh	r3, [r3, #0]	@ movhi
	strh	r3, [fp, #-22]	@ movhi
	b	.L543
.L537:
	ldr	r3, [fp, #-32]
	bic	r2, r3, #-33554432
	ldr	r3, .L553+40
	ldr	r3, [r3, #0]
	cmp	r2, r3
	bcc	.L545
	mov	r3, #0
	strh	r3, [fp, #-22]	@ movhi
	b	.L543
.L545:
	ldr	r3, [fp, #-32]
	mov	r3, r3, lsr #15
	str	r3, [fp, #-20]
	ldr	r2, [fp, #-20]
	ldr	r3, .L553+44
	ldr	r3, [r3, r2, asl #2]
	str	r3, [fp, #-16]
	ldr	r3, [fp, #-16]
	cmp	r3, #0
	bne	.L547
	ldr	r3, [fp, #-20]
	mov	r3, r3, asl #22
	mov	r3, r3, lsr #22
	mov	r0, r3
	bl	load_gamepak_page
	mov	r3, r0
	str	r3, [fp, #-16]
.L547:
	ldr	r3, [fp, #-32]
	mov	r3, r3, asl #17
	mov	r3, r3, lsr #17
	ldr	r2, [fp, #-16]
	add	r3, r3, r2
	ldrh	r3, [r3, #0]	@ movhi
	strh	r3, [fp, #-22]	@ movhi
	b	.L543
.L538:
	ldr	r3, [fp, #-32]
	bic	r2, r3, #-33554432
	ldr	r3, .L553+40
	ldr	r3, [r3, #0]
	cmp	r2, r3
	bcs	.L548
	ldr	r3, [fp, #-32]
	mov	r3, r3, lsr #15
	str	r3, [fp, #-12]
	ldr	r2, [fp, #-12]
	ldr	r3, .L553+44
	ldr	r3, [r3, r2, asl #2]
	str	r3, [fp, #-8]
	ldr	r3, [fp, #-8]
	cmp	r3, #0
	bne	.L549
	ldr	r3, [fp, #-12]
	mov	r3, r3, asl #22
	mov	r3, r3, lsr #22
	mov	r0, r3
	bl	load_gamepak_page
	mov	r3, r0
	str	r3, [fp, #-8]
.L549:
	ldr	r3, [fp, #-32]
	mov	r3, r3, asl #17
	mov	r3, r3, lsr #17
	ldr	r2, [fp, #-8]
	add	r3, r3, r2
	ldrh	r3, [r3, #0]	@ movhi
	strh	r3, [fp, #-22]	@ movhi
	b	.L543
.L548:
	bl	read_eeprom
	mov	r3, r0
	strh	r3, [fp, #-22]	@ movhi
	b	.L543
.L539:
	mov	r3, #0
	strh	r3, [fp, #-22]	@ movhi
	b	.L543
.L529:
	ldr	r3, .L553
	ldr	r3, [r3, #0]
	add	r3, r3, #80
	ldr	r3, [r3, #0]
	and	r3, r3, #32
	cmp	r3, #0
	bne	.L551
	ldr	r3, .L553
	ldr	r3, [r3, #0]
	add	r3, r3, #60
	ldr	r2, [r3, #0]
	ldr	r3, [fp, #-32]
	and	r3, r3, #2
	add	r3, r2, r3
	add	r3, r3, #4
	mov	r0, r3
	bl	read_memory16
	mov	r3, r0
	strh	r3, [fp, #-22]	@ movhi
	b	.L543
.L551:
	ldr	r3, .L553
	ldr	r3, [r3, #0]
	add	r3, r3, #60
	ldr	r3, [r3, #0]
	add	r3, r3, #2
	mov	r0, r3
	bl	read_memory16
	mov	r3, r0
	strh	r3, [fp, #-22]	@ movhi
.L543:
	ldrh	r3, [fp, #-22]
.L528:
	mov	r0, r3
	sub	sp, fp, #4
	ldmfd	sp!, {fp, pc}
.L554:
	.align	2
.L553:
	.word	reg
	.word	16383
	.word	bios_read_protect
	.word	bios_rom
	.word	ewram
	.word	iwram
	.word	io_registers
	.word	palette_ram
	.word	vram
	.word	oam_ram
	.word	gamepak_size
	.word	memory_map_read
	.size	read_memory16_signed, .-read_memory16_signed
	.align	2
	.global	read_memory16
	.hidden	read_memory16
	.type	read_memory16, %function
read_memory16:
	@ args = 0, pretend = 0, frame = 48
	@ frame_needed = 1, uses_anonymous_args = 0
	stmfd	sp!, {fp, lr}
	add	fp, sp, #4
	sub	sp, sp, #48
	str	r0, [fp, #-48]
	ldr	r3, [fp, #-48]
	and	r3, r3, #1
	and	r3, r3, #255
	cmp	r3, #0
	beq	.L556
	ldr	r3, [fp, #-48]
	bic	r3, r3, #1
	str	r3, [fp, #-48]
	ldr	r3, [fp, #-48]
	mov	r3, r3, lsr #24
	cmp	r3, #15
	ldrls	pc, [pc, r3, asl #2]
	b	.L557
.L568:
	.word	.L558
	.word	.L557
	.word	.L559
	.word	.L560
	.word	.L561
	.word	.L562
	.word	.L563
	.word	.L564
	.word	.L565
	.word	.L565
	.word	.L565
	.word	.L565
	.word	.L565
	.word	.L566
	.word	.L567
	.word	.L567
.L558:
	ldr	r3, .L604
	ldr	r3, [r3, #0]
	add	r3, r3, #60
	ldr	r2, [r3, #0]
	ldr	r3, .L604+4
	cmp	r2, r3
	bls	.L569
	ldr	r2, .L604+8
	ldr	r3, [fp, #-48]
	and	r3, r3, #3
	add	r3, r2, r3
	ldrh	r3, [r3, #0]
	str	r3, [fp, #-40]
	b	.L571
.L569:
	ldr	r3, [fp, #-48]
	mov	r3, r3, asl #18
	mov	r3, r3, lsr #18
	ldr	r2, .L604+12
	add	r3, r3, r2
	ldrh	r3, [r3, #0]
	str	r3, [fp, #-40]
	b	.L571
.L559:
	ldr	r3, [fp, #-48]
	mov	r3, r3, asl #17
	mov	r3, r3, lsr #17
	ldr	r2, [fp, #-48]
	and	r2, r2, #229376
	mov	r2, r2, asl #1
	add	r3, r3, r2
	add	r3, r3, #32768
	str	r3, [fp, #-48]
	ldr	r2, .L604+16
	ldr	r3, [fp, #-48]
	add	r3, r2, r3
	ldrh	r3, [r3, #0]
	str	r3, [fp, #-40]
	b	.L571
.L560:
	ldr	r3, [fp, #-48]
	mov	r3, r3, asl #17
	mov	r3, r3, lsr #17
	add	r2, r3, #32768
	ldr	r3, .L604+20
	add	r3, r2, r3
	ldrh	r3, [r3, #0]
	str	r3, [fp, #-40]
	b	.L571
.L561:
	ldr	r3, [fp, #-48]
	mov	r3, r3, asl #22
	mov	r3, r3, lsr #22
	ldr	r2, .L604+24
	add	r3, r3, r2
	ldrh	r3, [r3, #0]
	str	r3, [fp, #-40]
	b	.L571
.L562:
	ldr	r3, [fp, #-48]
	mov	r3, r3, asl #22
	mov	r3, r3, lsr #22
	ldr	r2, .L604+28
	add	r3, r3, r2
	ldrh	r3, [r3, #0]
	str	r3, [fp, #-40]
	b	.L571
.L563:
	ldr	r3, [fp, #-48]
	bic	r3, r3, #-16777216
	bic	r3, r3, #16646144
	str	r3, [fp, #-48]
	ldr	r3, [fp, #-48]
	cmp	r3, #98304
	bls	.L572
	ldr	r3, [fp, #-48]
	sub	r3, r3, #32768
	str	r3, [fp, #-48]
.L572:
	ldr	r2, .L604+32
	ldr	r3, [fp, #-48]
	add	r3, r2, r3
	ldrh	r3, [r3, #0]
	str	r3, [fp, #-40]
	b	.L571
.L564:
	ldr	r3, [fp, #-48]
	mov	r3, r3, asl #22
	mov	r3, r3, lsr #22
	ldr	r2, .L604+36
	add	r3, r3, r2
	ldrh	r3, [r3, #0]
	str	r3, [fp, #-40]
	b	.L571
.L565:
	ldr	r3, [fp, #-48]
	bic	r2, r3, #-33554432
	ldr	r3, .L604+40
	ldr	r3, [r3, #0]
	cmp	r2, r3
	bcc	.L573
	mov	r3, #0
	str	r3, [fp, #-40]
	b	.L571
.L573:
	ldr	r3, [fp, #-48]
	mov	r3, r3, lsr #15
	str	r3, [fp, #-36]
	ldr	r2, [fp, #-36]
	ldr	r3, .L604+44
	ldr	r3, [r3, r2, asl #2]
	str	r3, [fp, #-32]
	ldr	r3, [fp, #-32]
	cmp	r3, #0
	bne	.L575
	ldr	r3, [fp, #-36]
	mov	r3, r3, asl #22
	mov	r3, r3, lsr #22
	mov	r0, r3
	bl	load_gamepak_page
	mov	r3, r0
	str	r3, [fp, #-32]
.L575:
	ldr	r3, [fp, #-48]
	mov	r3, r3, asl #17
	mov	r3, r3, lsr #17
	ldr	r2, [fp, #-32]
	add	r3, r3, r2
	ldrh	r3, [r3, #0]
	str	r3, [fp, #-40]
	b	.L571
.L566:
	ldr	r3, [fp, #-48]
	bic	r2, r3, #-33554432
	ldr	r3, .L604+40
	ldr	r3, [r3, #0]
	cmp	r2, r3
	bcs	.L576
	ldr	r3, [fp, #-48]
	mov	r3, r3, lsr #15
	str	r3, [fp, #-28]
	ldr	r2, [fp, #-28]
	ldr	r3, .L604+44
	ldr	r3, [r3, r2, asl #2]
	str	r3, [fp, #-24]
	ldr	r3, [fp, #-24]
	cmp	r3, #0
	bne	.L577
	ldr	r3, [fp, #-28]
	mov	r3, r3, asl #22
	mov	r3, r3, lsr #22
	mov	r0, r3
	bl	load_gamepak_page
	mov	r3, r0
	str	r3, [fp, #-24]
.L577:
	ldr	r3, [fp, #-48]
	mov	r3, r3, asl #17
	mov	r3, r3, lsr #17
	ldr	r2, [fp, #-24]
	add	r3, r3, r2
	ldrh	r3, [r3, #0]
	str	r3, [fp, #-40]
	b	.L571
.L576:
	bl	read_eeprom
	mov	r3, r0
	str	r3, [fp, #-40]
	b	.L571
.L567:
	mov	r3, #0
	str	r3, [fp, #-40]
	b	.L571
.L557:
	ldr	r3, .L604
	ldr	r3, [r3, #0]
	add	r3, r3, #80
	ldr	r3, [r3, #0]
	and	r3, r3, #32
	cmp	r3, #0
	bne	.L579
	ldr	r3, .L604
	ldr	r3, [r3, #0]
	add	r3, r3, #60
	ldr	r2, [r3, #0]
	ldr	r3, [fp, #-48]
	and	r3, r3, #2
	add	r3, r2, r3
	add	r3, r3, #4
	mov	r0, r3
	bl	read_memory16
	mov	r3, r0
	str	r3, [fp, #-40]
	b	.L571
.L579:
	ldr	r3, .L604
	ldr	r3, [r3, #0]
	add	r3, r3, #60
	ldr	r3, [r3, #0]
	add	r3, r3, #2
	mov	r0, r3
	bl	read_memory16
	mov	r3, r0
	str	r3, [fp, #-40]
.L571:
	ldr	r3, [fp, #-40]
	mov	r3, r3, ror #8
	str	r3, [fp, #-40]
	b	.L580
.L556:
	ldr	r3, [fp, #-48]
	mov	r3, r3, lsr #24
	cmp	r3, #15
	ldrls	pc, [pc, r3, asl #2]
	b	.L581
.L592:
	.word	.L582
	.word	.L581
	.word	.L583
	.word	.L584
	.word	.L585
	.word	.L586
	.word	.L587
	.word	.L588
	.word	.L589
	.word	.L589
	.word	.L589
	.word	.L589
	.word	.L589
	.word	.L590
	.word	.L591
	.word	.L591
.L582:
	ldr	r3, .L604
	ldr	r3, [r3, #0]
	add	r3, r3, #60
	ldr	r2, [r3, #0]
	ldr	r3, .L604+4
	cmp	r2, r3
	bls	.L593
	ldr	r2, .L604+8
	ldr	r3, [fp, #-48]
	and	r3, r3, #3
	add	r3, r2, r3
	ldrh	r3, [r3, #0]
	str	r3, [fp, #-40]
	b	.L580
.L593:
	ldr	r3, [fp, #-48]
	mov	r3, r3, asl #18
	mov	r3, r3, lsr #18
	ldr	r2, .L604+12
	add	r3, r3, r2
	ldrh	r3, [r3, #0]
	str	r3, [fp, #-40]
	b	.L580
.L583:
	ldr	r3, [fp, #-48]
	mov	r3, r3, asl #17
	mov	r3, r3, lsr #17
	ldr	r2, [fp, #-48]
	and	r2, r2, #229376
	mov	r2, r2, asl #1
	add	r3, r3, r2
	add	r3, r3, #32768
	str	r3, [fp, #-48]
	ldr	r2, .L604+16
	ldr	r3, [fp, #-48]
	add	r3, r2, r3
	ldrh	r3, [r3, #0]
	str	r3, [fp, #-40]
	b	.L580
.L584:
	ldr	r3, [fp, #-48]
	mov	r3, r3, asl #17
	mov	r3, r3, lsr #17
	add	r2, r3, #32768
	ldr	r3, .L604+20
	add	r3, r2, r3
	ldrh	r3, [r3, #0]
	str	r3, [fp, #-40]
	b	.L580
.L585:
	ldr	r3, [fp, #-48]
	mov	r3, r3, asl #22
	mov	r3, r3, lsr #22
	ldr	r2, .L604+24
	add	r3, r3, r2
	ldrh	r3, [r3, #0]
	str	r3, [fp, #-40]
	b	.L580
.L586:
	ldr	r3, [fp, #-48]
	mov	r3, r3, asl #22
	mov	r3, r3, lsr #22
	ldr	r2, .L604+28
	add	r3, r3, r2
	ldrh	r3, [r3, #0]
	str	r3, [fp, #-40]
	b	.L580
.L587:
	ldr	r3, [fp, #-48]
	bic	r3, r3, #-16777216
	bic	r3, r3, #16646144
	str	r3, [fp, #-48]
	ldr	r3, [fp, #-48]
	cmp	r3, #98304
	bls	.L595
	ldr	r3, [fp, #-48]
	sub	r3, r3, #32768
	str	r3, [fp, #-48]
.L595:
	ldr	r2, .L604+32
	ldr	r3, [fp, #-48]
	add	r3, r2, r3
	ldrh	r3, [r3, #0]
	str	r3, [fp, #-40]
	b	.L580
.L588:
	ldr	r3, [fp, #-48]
	mov	r3, r3, asl #22
	mov	r3, r3, lsr #22
	ldr	r2, .L604+36
	add	r3, r3, r2
	ldrh	r3, [r3, #0]
	str	r3, [fp, #-40]
	b	.L580
.L589:
	ldr	r3, [fp, #-48]
	bic	r2, r3, #-33554432
	ldr	r3, .L604+40
	ldr	r3, [r3, #0]
	cmp	r2, r3
	bcc	.L596
	mov	r3, #0
	str	r3, [fp, #-40]
	b	.L580
.L596:
	ldr	r3, [fp, #-48]
	mov	r3, r3, lsr #15
	str	r3, [fp, #-20]
	ldr	r2, [fp, #-20]
	ldr	r3, .L604+44
	ldr	r3, [r3, r2, asl #2]
	str	r3, [fp, #-16]
	ldr	r3, [fp, #-16]
	cmp	r3, #0
	bne	.L598
	ldr	r3, [fp, #-20]
	mov	r3, r3, asl #22
	mov	r3, r3, lsr #22
	mov	r0, r3
	bl	load_gamepak_page
	mov	r3, r0
	str	r3, [fp, #-16]
.L598:
	ldr	r3, [fp, #-48]
	mov	r3, r3, asl #17
	mov	r3, r3, lsr #17
	ldr	r2, [fp, #-16]
	add	r3, r3, r2
	ldrh	r3, [r3, #0]
	str	r3, [fp, #-40]
	b	.L580
.L590:
	ldr	r3, [fp, #-48]
	bic	r2, r3, #-33554432
	ldr	r3, .L604+40
	ldr	r3, [r3, #0]
	cmp	r2, r3
	bcs	.L599
	ldr	r3, [fp, #-48]
	mov	r3, r3, lsr #15
	str	r3, [fp, #-12]
	ldr	r2, [fp, #-12]
	ldr	r3, .L604+44
	ldr	r3, [r3, r2, asl #2]
	str	r3, [fp, #-8]
	ldr	r3, [fp, #-8]
	cmp	r3, #0
	bne	.L600
	ldr	r3, [fp, #-12]
	mov	r3, r3, asl #22
	mov	r3, r3, lsr #22
	mov	r0, r3
	bl	load_gamepak_page
	mov	r3, r0
	str	r3, [fp, #-8]
.L600:
	ldr	r3, [fp, #-48]
	mov	r3, r3, asl #17
	mov	r3, r3, lsr #17
	ldr	r2, [fp, #-8]
	add	r3, r3, r2
	ldrh	r3, [r3, #0]
	str	r3, [fp, #-40]
	b	.L580
.L599:
	bl	read_eeprom
	mov	r3, r0
	str	r3, [fp, #-40]
	b	.L580
.L591:
	mov	r3, #0
	str	r3, [fp, #-40]
	b	.L580
.L581:
	ldr	r3, .L604
	ldr	r3, [r3, #0]
	add	r3, r3, #80
	ldr	r3, [r3, #0]
	and	r3, r3, #32
	cmp	r3, #0
	bne	.L602
	ldr	r3, .L604
	ldr	r3, [r3, #0]
	add	r3, r3, #60
	ldr	r2, [r3, #0]
	ldr	r3, [fp, #-48]
	and	r3, r3, #2
	add	r3, r2, r3
	add	r3, r3, #4
	mov	r0, r3
	bl	read_memory16
	mov	r3, r0
	str	r3, [fp, #-40]
	b	.L580
.L602:
	ldr	r3, .L604
	ldr	r3, [r3, #0]
	add	r3, r3, #60
	ldr	r3, [r3, #0]
	add	r3, r3, #2
	mov	r0, r3
	bl	read_memory16
	mov	r3, r0
	str	r3, [fp, #-40]
.L580:
	ldr	r3, [fp, #-40]
	mov	r0, r3
	sub	sp, fp, #4
	ldmfd	sp!, {fp, pc}
.L605:
	.align	2
.L604:
	.word	reg
	.word	16383
	.word	bios_read_protect
	.word	bios_rom
	.word	ewram
	.word	iwram
	.word	io_registers
	.word	palette_ram
	.word	vram
	.word	oam_ram
	.word	gamepak_size
	.word	memory_map_read
	.size	read_memory16, .-read_memory16
	.align	2
	.global	read_memory32
	.hidden	read_memory32
	.type	read_memory32, %function
read_memory32:
	@ args = 0, pretend = 0, frame = 56
	@ frame_needed = 1, uses_anonymous_args = 0
	stmfd	sp!, {fp, lr}
	add	fp, sp, #4
	sub	sp, sp, #56
	str	r0, [fp, #-56]
	ldr	r3, [fp, #-56]
	and	r3, r3, #3
	cmp	r3, #0
	beq	.L607
	ldr	r3, [fp, #-56]
	and	r3, r3, #3
	mov	r3, r3, asl #3
	str	r3, [fp, #-48]
	ldr	r3, [fp, #-56]
	bic	r3, r3, #3
	str	r3, [fp, #-56]
	ldr	r3, [fp, #-56]
	mov	r3, r3, lsr #24
	cmp	r3, #15
	ldrls	pc, [pc, r3, asl #2]
	b	.L608
.L619:
	.word	.L609
	.word	.L608
	.word	.L610
	.word	.L611
	.word	.L612
	.word	.L613
	.word	.L614
	.word	.L615
	.word	.L616
	.word	.L616
	.word	.L616
	.word	.L616
	.word	.L616
	.word	.L617
	.word	.L618
	.word	.L618
.L609:
	ldr	r3, .L655
	ldr	r3, [r3, #0]
	add	r3, r3, #60
	ldr	r2, [r3, #0]
	ldr	r3, .L655+4
	cmp	r2, r3
	bls	.L620
	ldr	r3, [fp, #-56]
	and	r2, r3, #3
	ldr	r3, .L655+8
	add	r3, r2, r3
	ldr	r3, [r3, #0]
	str	r3, [fp, #-52]
	b	.L622
.L620:
	ldr	r3, [fp, #-56]
	mov	r3, r3, asl #18
	mov	r3, r3, lsr #18
	ldr	r2, .L655+12
	add	r3, r3, r2
	ldr	r3, [r3, #0]
	str	r3, [fp, #-52]
	b	.L622
.L610:
	ldr	r3, [fp, #-56]
	mov	r3, r3, asl #17
	mov	r3, r3, lsr #17
	ldr	r2, [fp, #-56]
	and	r2, r2, #229376
	mov	r2, r2, asl #1
	add	r3, r3, r2
	add	r3, r3, #32768
	str	r3, [fp, #-56]
	ldr	r2, .L655+16
	ldr	r3, [fp, #-56]
	add	r3, r2, r3
	ldr	r3, [r3, #0]
	str	r3, [fp, #-52]
	b	.L622
.L611:
	ldr	r3, [fp, #-56]
	mov	r3, r3, asl #17
	mov	r3, r3, lsr #17
	add	r2, r3, #32768
	ldr	r3, .L655+20
	add	r3, r2, r3
	ldr	r3, [r3, #0]
	str	r3, [fp, #-52]
	b	.L622
.L612:
	ldr	r2, .L655+24
	ldr	r3, [fp, #-56]
	mov	r3, r3, asl #22
	mov	r3, r3, lsr #22
	add	r3, r2, r3
	ldr	r3, [r3, #0]
	str	r3, [fp, #-52]
	b	.L622
.L613:
	ldr	r2, .L655+28
	ldr	r3, [fp, #-56]
	mov	r3, r3, asl #22
	mov	r3, r3, lsr #22
	add	r3, r2, r3
	ldr	r3, [r3, #0]
	str	r3, [fp, #-52]
	b	.L622
.L614:
	ldr	r3, [fp, #-56]
	bic	r3, r3, #-16777216
	bic	r3, r3, #16646144
	str	r3, [fp, #-56]
	ldr	r3, [fp, #-56]
	cmp	r3, #98304
	bls	.L623
	ldr	r3, [fp, #-56]
	sub	r3, r3, #32768
	str	r3, [fp, #-56]
.L623:
	ldr	r2, .L655+32
	ldr	r3, [fp, #-56]
	add	r3, r2, r3
	ldr	r3, [r3, #0]
	str	r3, [fp, #-52]
	b	.L622
.L615:
	ldr	r2, .L655+36
	ldr	r3, [fp, #-56]
	mov	r3, r3, asl #22
	mov	r3, r3, lsr #22
	add	r3, r2, r3
	ldr	r3, [r3, #0]
	str	r3, [fp, #-52]
	b	.L622
.L616:
	ldr	r3, [fp, #-56]
	bic	r2, r3, #-33554432
	ldr	r3, .L655+40
	ldr	r3, [r3, #0]
	cmp	r2, r3
	bcc	.L624
	mov	r3, #0
	str	r3, [fp, #-52]
	b	.L622
.L624:
	ldr	r3, [fp, #-56]
	mov	r3, r3, lsr #15
	str	r3, [fp, #-44]
	ldr	r2, [fp, #-44]
	ldr	r3, .L655+44
	ldr	r3, [r3, r2, asl #2]
	str	r3, [fp, #-40]
	ldr	r3, [fp, #-40]
	cmp	r3, #0
	bne	.L626
	ldr	r3, [fp, #-44]
	mov	r3, r3, asl #22
	mov	r3, r3, lsr #22
	mov	r0, r3
	bl	load_gamepak_page
	mov	r3, r0
	str	r3, [fp, #-40]
.L626:
	ldr	r3, [fp, #-56]
	mov	r3, r3, asl #17
	mov	r3, r3, lsr #17
	ldr	r2, [fp, #-40]
	add	r3, r3, r2
	ldr	r3, [r3, #0]
	str	r3, [fp, #-52]
	b	.L622
.L617:
	ldr	r3, [fp, #-56]
	bic	r2, r3, #-33554432
	ldr	r3, .L655+40
	ldr	r3, [r3, #0]
	cmp	r2, r3
	bcs	.L627
	ldr	r3, [fp, #-56]
	mov	r3, r3, lsr #15
	str	r3, [fp, #-36]
	ldr	r2, [fp, #-36]
	ldr	r3, .L655+44
	ldr	r3, [r3, r2, asl #2]
	str	r3, [fp, #-32]
	ldr	r3, [fp, #-32]
	cmp	r3, #0
	bne	.L628
	ldr	r3, [fp, #-36]
	mov	r3, r3, asl #22
	mov	r3, r3, lsr #22
	mov	r0, r3
	bl	load_gamepak_page
	mov	r3, r0
	str	r3, [fp, #-32]
.L628:
	ldr	r3, [fp, #-56]
	mov	r3, r3, asl #17
	mov	r3, r3, lsr #17
	ldr	r2, [fp, #-32]
	add	r3, r3, r2
	ldr	r3, [r3, #0]
	str	r3, [fp, #-52]
	b	.L622
.L627:
	bl	read_eeprom
	mov	r3, r0
	str	r3, [fp, #-52]
	b	.L622
.L618:
	mov	r3, #0
	str	r3, [fp, #-52]
	b	.L622
.L608:
	ldr	r3, .L655
	ldr	r3, [r3, #0]
	add	r3, r3, #80
	ldr	r3, [r3, #0]
	and	r3, r3, #32
	cmp	r3, #0
	bne	.L630
	ldr	r3, .L655
	ldr	r3, [r3, #0]
	add	r3, r3, #60
	ldr	r3, [r3, #0]
	add	r3, r3, #4
	mov	r0, r3
	bl	read_memory32
	mov	r3, r0
	str	r3, [fp, #-52]
	b	.L622
.L630:
	ldr	r3, .L655
	ldr	r3, [r3, #0]
	add	r3, r3, #60
	ldr	r3, [r3, #0]
	add	r3, r3, #2
	mov	r0, r3
	bl	read_memory16
	mov	r3, r0
	str	r3, [fp, #-28]
	ldr	r3, [fp, #-28]
	mov	r2, r3, asl #16
	ldr	r3, [fp, #-28]
	orr	r3, r2, r3
	str	r3, [fp, #-52]
.L622:
	ldr	r2, [fp, #-52]
	ldr	r3, [fp, #-48]
	mov	r3, r2, ror r3
	str	r3, [fp, #-52]
	b	.L631
.L607:
	ldr	r3, [fp, #-56]
	mov	r3, r3, lsr #24
	cmp	r3, #15
	ldrls	pc, [pc, r3, asl #2]
	b	.L632
.L643:
	.word	.L633
	.word	.L632
	.word	.L634
	.word	.L635
	.word	.L636
	.word	.L637
	.word	.L638
	.word	.L639
	.word	.L640
	.word	.L640
	.word	.L640
	.word	.L640
	.word	.L640
	.word	.L641
	.word	.L642
	.word	.L642
.L633:
	ldr	r3, .L655
	ldr	r3, [r3, #0]
	add	r3, r3, #60
	ldr	r2, [r3, #0]
	ldr	r3, .L655+4
	cmp	r2, r3
	bls	.L644
	ldr	r3, [fp, #-56]
	and	r2, r3, #3
	ldr	r3, .L655+8
	add	r3, r2, r3
	ldr	r3, [r3, #0]
	str	r3, [fp, #-52]
	b	.L631
.L644:
	ldr	r3, [fp, #-56]
	mov	r3, r3, asl #18
	mov	r3, r3, lsr #18
	ldr	r2, .L655+12
	add	r3, r3, r2
	ldr	r3, [r3, #0]
	str	r3, [fp, #-52]
	b	.L631
.L634:
	ldr	r3, [fp, #-56]
	mov	r3, r3, asl #17
	mov	r3, r3, lsr #17
	ldr	r2, [fp, #-56]
	and	r2, r2, #229376
	mov	r2, r2, asl #1
	add	r3, r3, r2
	add	r3, r3, #32768
	str	r3, [fp, #-56]
	ldr	r2, .L655+16
	ldr	r3, [fp, #-56]
	add	r3, r2, r3
	ldr	r3, [r3, #0]
	str	r3, [fp, #-52]
	b	.L631
.L635:
	ldr	r3, [fp, #-56]
	mov	r3, r3, asl #17
	mov	r3, r3, lsr #17
	add	r2, r3, #32768
	ldr	r3, .L655+20
	add	r3, r2, r3
	ldr	r3, [r3, #0]
	str	r3, [fp, #-52]
	b	.L631
.L636:
	ldr	r2, .L655+24
	ldr	r3, [fp, #-56]
	mov	r3, r3, asl #22
	mov	r3, r3, lsr #22
	add	r3, r2, r3
	ldr	r3, [r3, #0]
	str	r3, [fp, #-52]
	b	.L631
.L637:
	ldr	r2, .L655+28
	ldr	r3, [fp, #-56]
	mov	r3, r3, asl #22
	mov	r3, r3, lsr #22
	add	r3, r2, r3
	ldr	r3, [r3, #0]
	str	r3, [fp, #-52]
	b	.L631
.L638:
	ldr	r3, [fp, #-56]
	bic	r3, r3, #-16777216
	bic	r3, r3, #16646144
	str	r3, [fp, #-56]
	ldr	r3, [fp, #-56]
	cmp	r3, #98304
	bls	.L646
	ldr	r3, [fp, #-56]
	sub	r3, r3, #32768
	str	r3, [fp, #-56]
.L646:
	ldr	r2, .L655+32
	ldr	r3, [fp, #-56]
	add	r3, r2, r3
	ldr	r3, [r3, #0]
	str	r3, [fp, #-52]
	b	.L631
.L639:
	ldr	r2, .L655+36
	ldr	r3, [fp, #-56]
	mov	r3, r3, asl #22
	mov	r3, r3, lsr #22
	add	r3, r2, r3
	ldr	r3, [r3, #0]
	str	r3, [fp, #-52]
	b	.L631
.L640:
	ldr	r3, [fp, #-56]
	bic	r2, r3, #-33554432
	ldr	r3, .L655+40
	ldr	r3, [r3, #0]
	cmp	r2, r3
	bcc	.L647
	mov	r3, #0
	str	r3, [fp, #-52]
	b	.L631
.L647:
	ldr	r3, [fp, #-56]
	mov	r3, r3, lsr #15
	str	r3, [fp, #-24]
	ldr	r2, [fp, #-24]
	ldr	r3, .L655+44
	ldr	r3, [r3, r2, asl #2]
	str	r3, [fp, #-20]
	ldr	r3, [fp, #-20]
	cmp	r3, #0
	bne	.L649
	ldr	r3, [fp, #-24]
	mov	r3, r3, asl #22
	mov	r3, r3, lsr #22
	mov	r0, r3
	bl	load_gamepak_page
	mov	r3, r0
	str	r3, [fp, #-20]
.L649:
	ldr	r3, [fp, #-56]
	mov	r3, r3, asl #17
	mov	r3, r3, lsr #17
	ldr	r2, [fp, #-20]
	add	r3, r3, r2
	ldr	r3, [r3, #0]
	str	r3, [fp, #-52]
	b	.L631
.L641:
	ldr	r3, [fp, #-56]
	bic	r2, r3, #-33554432
	ldr	r3, .L655+40
	ldr	r3, [r3, #0]
	cmp	r2, r3
	bcs	.L650
	ldr	r3, [fp, #-56]
	mov	r3, r3, lsr #15
	str	r3, [fp, #-16]
	ldr	r2, [fp, #-16]
	ldr	r3, .L655+44
	ldr	r3, [r3, r2, asl #2]
	str	r3, [fp, #-12]
	ldr	r3, [fp, #-12]
	cmp	r3, #0
	bne	.L651
	ldr	r3, [fp, #-16]
	mov	r3, r3, asl #22
	mov	r3, r3, lsr #22
	mov	r0, r3
	bl	load_gamepak_page
	mov	r3, r0
	str	r3, [fp, #-12]
.L651:
	ldr	r3, [fp, #-56]
	mov	r3, r3, asl #17
	mov	r3, r3, lsr #17
	ldr	r2, [fp, #-12]
	add	r3, r3, r2
	ldr	r3, [r3, #0]
	str	r3, [fp, #-52]
	b	.L631
.L650:
	bl	read_eeprom
	mov	r3, r0
	str	r3, [fp, #-52]
	b	.L631
.L642:
	mov	r3, #0
	str	r3, [fp, #-52]
	b	.L631
.L632:
	ldr	r3, .L655
	ldr	r3, [r3, #0]
	add	r3, r3, #80
	ldr	r3, [r3, #0]
	and	r3, r3, #32
	cmp	r3, #0
	bne	.L653
	ldr	r3, .L655
	ldr	r3, [r3, #0]
	add	r3, r3, #60
	ldr	r3, [r3, #0]
	add	r3, r3, #4
	mov	r0, r3
	bl	read_memory32
	mov	r3, r0
	str	r3, [fp, #-52]
	b	.L631
.L653:
	ldr	r3, .L655
	ldr	r3, [r3, #0]
	add	r3, r3, #60
	ldr	r3, [r3, #0]
	add	r3, r3, #2
	mov	r0, r3
	bl	read_memory16
	mov	r3, r0
	str	r3, [fp, #-8]
	ldr	r3, [fp, #-8]
	mov	r2, r3, asl #16
	ldr	r3, [fp, #-8]
	orr	r3, r2, r3
	str	r3, [fp, #-52]
.L631:
	ldr	r3, [fp, #-52]
	mov	r0, r3
	sub	sp, fp, #4
	ldmfd	sp!, {fp, pc}
.L656:
	.align	2
.L655:
	.word	reg
	.word	16383
	.word	bios_read_protect
	.word	bios_rom
	.word	ewram
	.word	iwram
	.word	io_registers
	.word	palette_ram
	.word	vram
	.word	oam_ram
	.word	gamepak_size
	.word	memory_map_read
	.size	read_memory32, .-read_memory32
	.align	2
	.global	write_memory8
	.hidden	write_memory8
	.type	write_memory8, %function
write_memory8:
	@ args = 0, pretend = 0, frame = 8
	@ frame_needed = 1, uses_anonymous_args = 0
	stmfd	sp!, {fp, lr}
	add	fp, sp, #4
	sub	sp, sp, #8
	str	r0, [fp, #-8]
	mov	r3, r1
	strb	r3, [fp, #-9]
	ldr	r3, [fp, #-8]
	mov	r3, r3, lsr #24
	sub	r3, r3, #2
	cmp	r3, #12
	ldrls	pc, [pc, r3, asl #2]
	b	.L658
.L669:
	.word	.L659
	.word	.L660
	.word	.L661
	.word	.L658
	.word	.L663
	.word	.L664
	.word	.L658
	.word	.L658
	.word	.L658
	.word	.L658
	.word	.L658
	.word	.L667
	.word	.L668
.L659:
	ldr	r3, [fp, #-8]
	mov	r3, r3, asl #17
	mov	r3, r3, lsr #17
	ldr	r2, [fp, #-8]
	and	r2, r2, #229376
	mov	r2, r2, asl #1
	add	r3, r3, r2
	add	r3, r3, #32768
	str	r3, [fp, #-8]
	ldr	r2, [fp, #-8]
	ldr	r3, .L673
	add	r3, r2, r3
	ldrb	r2, [fp, #-9]
	strb	r2, [r3, #0]
	b	.L658
.L660:
	ldr	r3, [fp, #-8]
	mov	r3, r3, asl #17
	mov	r3, r3, lsr #17
	add	r2, r3, #32768
	ldr	r3, .L673+4
	add	r3, r2, r3
	ldrb	r2, [fp, #-9]
	strb	r2, [r3, #0]
	b	.L658
.L661:
	ldr	r3, [fp, #-8]
	mov	r3, r3, asl #22
	mov	r3, r3, lsr #22
	ldrb	r2, [fp, #-9]	@ zero_extendqisi2
	mov	r0, r3
	mov	r1, r2
	bl	write_io_register8
	mov	r3, r0
	b	.L670
.L663:
	ldr	r3, [fp, #-8]
	bic	r3, r3, #-16777216
	bic	r3, r3, #16646144
	str	r3, [fp, #-8]
	ldr	r2, [fp, #-8]
	ldr	r3, .L673+8
	cmp	r2, r3
	bls	.L671
	ldr	r3, [fp, #-8]
	sub	r3, r3, #32768
	str	r3, [fp, #-8]
.L671:
	ldr	r3, [fp, #-8]
	bic	r3, r3, #1
	str	r3, [fp, #-8]
	ldr	r2, .L673+12
	ldr	r3, [fp, #-8]
	add	r3, r2, r3
	ldrb	r2, [fp, #-9]	@ zero_extendqisi2
	mov	r2, r2, asl #8
	mov	r2, r2, asl #16
	mov	r1, r2, lsr #16
	ldrb	r2, [fp, #-9]	@ zero_extendqisi2
	orr	r2, r1, r2
	mov	r2, r2, asl #16
	mov	r2, r2, lsr #16
	mov	r2, r2, asl #16
	mov	r2, r2, lsr #16
	strh	r2, [r3, #0]	@ movhi
	b	.L658
.L664:
	ldr	r3, .L673+16
	mov	r2, #1
	str	r2, [r3, #0]
	ldr	r2, .L673+20
	ldr	r3, [fp, #-8]
	mov	r3, r3, asl #22
	mov	r3, r3, lsr #22
	add	r3, r2, r3
	ldrb	r2, [fp, #-9]
	strb	r2, [r3, #0]
	b	.L658
.L667:
	ldrb	r3, [fp, #-9]	@ zero_extendqisi2
	ldr	r0, [fp, #-8]
	mov	r1, r3
	bl	write_eeprom
	b	.L658
.L668:
	ldr	r3, [fp, #-8]
	mov	r3, r3, asl #16
	mov	r3, r3, lsr #16
	ldrb	r2, [fp, #-9]	@ zero_extendqisi2
	mov	r0, r3
	mov	r1, r2
	bl	write_backup
.L658:
	mov	r3, #0
.L670:
	mov	r0, r3
	sub	sp, fp, #4
	ldmfd	sp!, {fp, pc}
.L674:
	.align	2
.L673:
	.word	ewram
	.word	iwram
	.word	98303
	.word	vram
	.word	oam_update
	.word	oam_ram
	.size	write_memory8, .-write_memory8
	.align	2
	.global	write_memory16
	.hidden	write_memory16
	.type	write_memory16, %function
write_memory16:
	@ args = 0, pretend = 0, frame = 16
	@ frame_needed = 1, uses_anonymous_args = 0
	stmfd	sp!, {fp, lr}
	add	fp, sp, #4
	sub	sp, sp, #16
	str	r0, [fp, #-16]
	mov	r3, r1
	strh	r3, [fp, #-18]	@ movhi
	ldr	r3, [fp, #-16]
	mov	r3, r3, lsr #24
	sub	r3, r3, #2
	cmp	r3, #11
	ldrls	pc, [pc, r3, asl #2]
	b	.L676
.L686:
	.word	.L677
	.word	.L678
	.word	.L679
	.word	.L680
	.word	.L681
	.word	.L682
	.word	.L683
	.word	.L676
	.word	.L676
	.word	.L676
	.word	.L676
	.word	.L685
.L677:
	ldr	r3, [fp, #-16]
	mov	r3, r3, asl #17
	mov	r3, r3, lsr #17
	ldr	r2, [fp, #-16]
	and	r2, r2, #229376
	mov	r2, r2, asl #1
	add	r3, r3, r2
	add	r3, r3, #32768
	str	r3, [fp, #-16]
	ldr	r2, .L690
	ldr	r3, [fp, #-16]
	add	r3, r2, r3
	ldrh	r2, [fp, #-18]	@ movhi
	strh	r2, [r3, #0]	@ movhi
	b	.L676
.L678:
	ldr	r3, [fp, #-16]
	mov	r3, r3, asl #17
	mov	r3, r3, lsr #17
	add	r2, r3, #32768
	ldr	r3, .L690+4
	add	r3, r2, r3
	ldrh	r2, [fp, #-18]	@ movhi
	strh	r2, [r3, #0]	@ movhi
	b	.L676
.L679:
	ldr	r3, [fp, #-16]
	mov	r3, r3, asl #22
	mov	r3, r3, lsr #22
	ldrh	r2, [fp, #-18]
	mov	r0, r3
	mov	r1, r2
	bl	write_io_register16
	mov	r3, r0
	b	.L687
.L680:
	ldr	r3, [fp, #-16]
	mov	r3, r3, asl #22
	mov	r3, r3, lsr #22
	str	r3, [fp, #-8]
	ldr	r2, [fp, #-8]
	ldr	r3, .L690+8
	add	r3, r2, r3
	ldrh	r2, [fp, #-18]	@ movhi
	strh	r2, [r3, #0]	@ movhi
	ldrh	r3, [fp, #-18]
	mov	r3, r3, asl #11
	mov	r3, r3, asl #16
	mov	r2, r3, lsr #16
	ldrh	r3, [fp, #-18]
	and	r3, r3, #992
	mov	r3, r3, asl #1
	mov	r3, r3, asl #16
	mov	r3, r3, lsr #16
	orr	r3, r2, r3
	mov	r3, r3, asl #16
	mov	r2, r3, lsr #16
	ldrh	r3, [fp, #-18]
	mov	r3, r3, lsr #10
	mov	r3, r3, asl #16
	mov	r3, r3, lsr #16
	orr	r3, r2, r3
	mov	r3, r3, asl #16
	mov	r3, r3, lsr #16
	strh	r3, [fp, #-18]	@ movhi
	ldr	r2, [fp, #-8]
	ldr	r3, .L690+12
	add	r3, r2, r3
	ldrh	r2, [fp, #-18]	@ movhi
	strh	r2, [r3, #0]	@ movhi
	b	.L676
.L681:
	ldr	r3, [fp, #-16]
	bic	r3, r3, #-16777216
	bic	r3, r3, #16646144
	str	r3, [fp, #-16]
	ldr	r2, [fp, #-16]
	ldr	r3, .L690+16
	cmp	r2, r3
	bls	.L688
	ldr	r3, [fp, #-16]
	sub	r3, r3, #32768
	str	r3, [fp, #-16]
.L688:
	ldr	r2, .L690+20
	ldr	r3, [fp, #-16]
	add	r3, r2, r3
	ldrh	r2, [fp, #-18]	@ movhi
	strh	r2, [r3, #0]	@ movhi
	b	.L676
.L682:
	ldr	r3, .L690+24
	mov	r2, #1
	str	r2, [r3, #0]
	ldr	r3, [fp, #-16]
	mov	r3, r3, asl #22
	mov	r3, r3, lsr #22
	ldr	r2, .L690+28
	add	r3, r3, r2
	ldrh	r2, [fp, #-18]	@ movhi
	strh	r2, [r3, #0]	@ movhi
	b	.L676
.L683:
	ldr	r3, [fp, #-16]
	and	r2, r3, #255
	ldrh	r3, [fp, #-18]
	mov	r0, r2
	mov	r1, r3
	bl	write_rtc
	b	.L676
.L685:
	ldrh	r3, [fp, #-18]
	ldr	r0, [fp, #-16]
	mov	r1, r3
	bl	write_eeprom
.L676:
	mov	r3, #0
.L687:
	mov	r0, r3
	sub	sp, fp, #4
	ldmfd	sp!, {fp, pc}
.L691:
	.align	2
.L690:
	.word	ewram
	.word	iwram
	.word	palette_ram
	.word	palette_ram_converted
	.word	98303
	.word	vram
	.word	oam_update
	.word	oam_ram
	.size	write_memory16, .-write_memory16
	.align	2
	.global	write_memory32
	.hidden	write_memory32
	.type	write_memory32, %function
write_memory32:
	@ args = 0, pretend = 0, frame = 24
	@ frame_needed = 1, uses_anonymous_args = 0
	stmfd	sp!, {fp, lr}
	add	fp, sp, #4
	sub	sp, sp, #24
	str	r0, [fp, #-24]
	str	r1, [fp, #-28]
	ldr	r3, [fp, #-24]
	mov	r3, r3, lsr #24
	sub	r3, r3, #2
	cmp	r3, #11
	ldrls	pc, [pc, r3, asl #2]
	b	.L693
.L703:
	.word	.L694
	.word	.L695
	.word	.L696
	.word	.L697
	.word	.L698
	.word	.L699
	.word	.L693
	.word	.L693
	.word	.L693
	.word	.L693
	.word	.L693
	.word	.L702
.L694:
	ldr	r3, [fp, #-24]
	mov	r3, r3, asl #17
	mov	r3, r3, lsr #17
	ldr	r2, [fp, #-24]
	and	r2, r2, #229376
	mov	r2, r2, asl #1
	add	r3, r3, r2
	add	r3, r3, #32768
	str	r3, [fp, #-24]
	ldr	r2, .L707
	ldr	r3, [fp, #-24]
	add	r3, r2, r3
	ldr	r2, [fp, #-28]
	str	r2, [r3, #0]
	b	.L693
.L695:
	ldr	r3, [fp, #-24]
	mov	r3, r3, asl #17
	mov	r3, r3, lsr #17
	add	r2, r3, #32768
	ldr	r3, .L707+4
	add	r3, r2, r3
	ldr	r2, [fp, #-28]
	str	r2, [r3, #0]
	b	.L693
.L696:
	ldr	r3, [fp, #-24]
	mov	r3, r3, asl #22
	mov	r3, r3, lsr #22
	mov	r0, r3
	ldr	r1, [fp, #-28]
	bl	write_io_register32
	mov	r3, r0
	b	.L704
.L697:
	ldr	r3, [fp, #-24]
	mov	r3, r3, asl #22
	mov	r3, r3, lsr #22
	str	r3, [fp, #-16]
	ldr	r3, [fp, #-28]
	mov	r3, r3, lsr #16
	str	r3, [fp, #-12]
	ldr	r3, [fp, #-28]
	mov	r3, r3, asl #16
	mov	r3, r3, lsr #16
	str	r3, [fp, #-8]
	ldr	r2, .L707+8
	ldr	r3, [fp, #-16]
	add	r3, r2, r3
	ldr	r2, [fp, #-28]
	str	r2, [r3, #0]
	ldr	r3, [fp, #-12]
	mov	r3, r3, asl #11
	mov	r3, r3, asl #16
	mov	r3, r3, lsr #16
	ldr	r2, [fp, #-12]
	and	r2, r2, #992
	mov	r2, r2, asl #1
	orr	r2, r3, r2
	ldr	r3, [fp, #-12]
	mov	r3, r3, lsr #10
	orr	r3, r2, r3
	str	r3, [fp, #-12]
	ldr	r3, [fp, #-8]
	mov	r3, r3, asl #11
	mov	r3, r3, asl #16
	mov	r3, r3, lsr #16
	ldr	r2, [fp, #-8]
	and	r2, r2, #992
	mov	r2, r2, asl #1
	orr	r2, r3, r2
	ldr	r3, [fp, #-8]
	mov	r3, r3, lsr #10
	orr	r3, r2, r3
	str	r3, [fp, #-8]
	ldr	r3, [fp, #-12]
	mov	r2, r3, asl #16
	ldr	r3, [fp, #-8]
	orr	r3, r2, r3
	str	r3, [fp, #-28]
	ldr	r2, .L707+12
	ldr	r3, [fp, #-16]
	add	r3, r2, r3
	ldr	r2, [fp, #-28]
	str	r2, [r3, #0]
	b	.L693
.L698:
	ldr	r3, [fp, #-24]
	bic	r3, r3, #-16777216
	bic	r3, r3, #16646144
	str	r3, [fp, #-24]
	ldr	r2, [fp, #-24]
	ldr	r3, .L707+16
	cmp	r2, r3
	bls	.L705
	ldr	r3, [fp, #-24]
	sub	r3, r3, #32768
	str	r3, [fp, #-24]
.L705:
	ldr	r2, .L707+20
	ldr	r3, [fp, #-24]
	add	r3, r2, r3
	ldr	r2, [fp, #-28]
	str	r2, [r3, #0]
	b	.L693
.L699:
	ldr	r3, .L707+24
	mov	r2, #1
	str	r2, [r3, #0]
	ldr	r2, .L707+28
	ldr	r3, [fp, #-24]
	mov	r3, r3, asl #22
	mov	r3, r3, lsr #22
	add	r3, r2, r3
	ldr	r2, [fp, #-28]
	str	r2, [r3, #0]
	b	.L693
.L702:
	ldr	r0, [fp, #-24]
	ldr	r1, [fp, #-28]
	bl	write_eeprom
.L693:
	mov	r3, #0
.L704:
	mov	r0, r3
	sub	sp, fp, #4
	ldmfd	sp!, {fp, pc}
.L708:
	.align	2
.L707:
	.word	ewram
	.word	iwram
	.word	palette_ram
	.word	palette_ram_converted
	.word	98303
	.word	vram
	.word	oam_update
	.word	oam_ram
	.size	write_memory32, .-write_memory32
	.hidden	backup_filename
	.comm	backup_filename,512,4
	.section	.rodata
	.align	2
.LC0:
	.ascii	"rb\000"
	.text
	.align	2
	.global	load_backup
	.hidden	load_backup
	.type	load_backup, %function
load_backup:
	@ args = 0, pretend = 0, frame = 16
	@ frame_needed = 1, uses_anonymous_args = 0
	stmfd	sp!, {fp, lr}
	add	fp, sp, #4
	sub	sp, sp, #16
	str	r0, [fp, #-16]
	ldr	r0, [fp, #-16]
	ldr	r1, .L720
	bl	fopen
	mov	r3, r0
	str	r3, [fp, #-12]
	ldr	r3, [fp, #-12]
	cmp	r3, #0
	beq	.L710
	ldr	r0, [fp, #-16]
	ldr	r1, [fp, #-12]
	bl	file_length
	mov	r3, r0
	str	r3, [fp, #-8]
	ldr	r0, .L720+4
	ldr	r1, [fp, #-8]
	mov	r2, #1
	ldr	r3, [fp, #-12]
	bl	fread
	ldr	r0, [fp, #-12]
	bl	fclose
	ldr	r3, [fp, #-8]
	cmp	r3, #32768
	beq	.L714
	cmp	r3, #32768
	bhi	.L717
	cmp	r3, #512
	beq	.L712
	cmp	r3, #8192
	beq	.L713
	b	.L711
.L717:
	cmp	r3, #65536
	beq	.L715
	cmp	r3, #131072
	beq	.L716
	b	.L711
.L712:
	ldr	r3, .L720+8
	mov	r2, #2
	str	r2, [r3, #0]
	ldr	r3, .L720+12
	mov	r2, #0
	str	r2, [r3, #0]
	b	.L711
.L713:
	ldr	r3, .L720+8
	mov	r2, #2
	str	r2, [r3, #0]
	ldr	r3, .L720+12
	mov	r2, #1
	str	r2, [r3, #0]
	b	.L711
.L714:
	ldr	r3, .L720+8
	mov	r2, #0
	str	r2, [r3, #0]
	ldr	r3, .L720+16
	mov	r2, #0
	str	r2, [r3, #0]
	b	.L711
.L715:
	ldr	r3, .L720+8
	mov	r2, #1
	str	r2, [r3, #0]
	ldr	r3, .L720+16
	mov	r2, #0
	str	r2, [r3, #0]
	b	.L711
.L716:
	ldr	r3, .L720+8
	mov	r2, #1
	str	r2, [r3, #0]
	ldr	r3, .L720+20
	mov	r2, #1
	str	r2, [r3, #0]
.L711:
	mov	r3, #1
	b	.L718
.L710:
	ldr	r3, .L720+8
	mov	r2, #3
	str	r2, [r3, #0]
	ldr	r0, .L720+4
	mov	r1, #255
	mov	r2, #131072
	bl	memset
	mov	r3, #0
.L718:
	mov	r0, r3
	sub	sp, fp, #4
	ldmfd	sp!, {fp, pc}
.L721:
	.align	2
.L720:
	.word	.LC0
	.word	gamepak_backup
	.word	backup_type
	.word	eeprom_size
	.word	sram_size
	.word	flash_size
	.size	load_backup, .-load_backup
	.section	.rodata
	.align	2
.LC1:
	.ascii	"wb\000"
	.text
	.align	2
	.global	save_backup
	.hidden	save_backup
	.type	save_backup, %function
save_backup:
	@ args = 0, pretend = 0, frame = 16
	@ frame_needed = 1, uses_anonymous_args = 0
	stmfd	sp!, {fp, lr}
	add	fp, sp, #4
	sub	sp, sp, #16
	str	r0, [fp, #-16]
	ldr	r3, .L735
	ldr	r3, [r3, #0]
	cmp	r3, #3
	beq	.L723
	ldr	r0, [fp, #-16]
	ldr	r1, .L735+4
	bl	fopen
	mov	r3, r0
	str	r3, [fp, #-12]
	ldr	r3, [fp, #-12]
	cmp	r3, #0
	beq	.L723
	ldr	r3, .L735
	ldr	r3, [r3, #0]
	cmp	r3, #1
	beq	.L726
	cmp	r3, #1
	bcc	.L725
	cmp	r3, #2
	beq	.L727
	b	.L724
.L725:
	ldr	r3, .L735+8
	ldr	r3, [r3, #0]
	cmp	r3, #0
	bne	.L728
	mov	r3, #32768
	str	r3, [fp, #-8]
	b	.L724
.L728:
	mov	r3, #65536
	str	r3, [fp, #-8]
	b	.L724
.L726:
	ldr	r3, .L735+12
	ldr	r3, [r3, #0]
	cmp	r3, #0
	bne	.L730
	mov	r3, #65536
	str	r3, [fp, #-8]
	b	.L724
.L730:
	mov	r3, #131072
	str	r3, [fp, #-8]
	b	.L724
.L727:
	ldr	r3, .L735+16
	ldr	r3, [r3, #0]
	cmp	r3, #0
	bne	.L732
	mov	r3, #512
	str	r3, [fp, #-8]
	b	.L724
.L732:
	mov	r3, #8192
	str	r3, [fp, #-8]
.L724:
	ldr	r0, .L735+20
	ldr	r1, [fp, #-8]
	mov	r2, #1
	ldr	r3, [fp, #-12]
	bl	fwrite
	ldr	r0, [fp, #-12]
	bl	fclose
	mov	r3, #1
	b	.L733
.L723:
	mov	r3, #0
.L733:
	mov	r0, r3
	sub	sp, fp, #4
	ldmfd	sp!, {fp, pc}
.L736:
	.align	2
.L735:
	.word	backup_type
	.word	.LC1
	.word	sram_size
	.word	flash_size
	.word	eeprom_size
	.word	gamepak_backup
	.size	save_backup, .-save_backup
	.align	2
	.global	update_backup
	.hidden	update_backup
	.type	update_backup, %function
update_backup:
	@ args = 0, pretend = 0, frame = 0
	@ frame_needed = 1, uses_anonymous_args = 0
	stmfd	sp!, {fp, lr}
	add	fp, sp, #4
	ldr	r3, .L741
	ldr	r3, [r3, #0]
	add	r2, r3, #1
	ldr	r3, .L741+4
	ldr	r3, [r3, #0]
	cmp	r2, r3
	beq	.L738
	ldr	r3, .L741+4
	ldr	r3, [r3, #0]
	sub	r2, r3, #1
	ldr	r3, .L741+4
	str	r2, [r3, #0]
.L738:
	ldr	r3, .L741+4
	ldr	r3, [r3, #0]
	cmp	r3, #0
	bne	.L740
	ldr	r0, .L741+8
	bl	save_backup
	ldr	r3, .L741
	ldr	r3, [r3, #0]
	add	r2, r3, #1
	ldr	r3, .L741+4
	str	r2, [r3, #0]
.L740:
	ldmfd	sp!, {fp, pc}
.L742:
	.align	2
.L741:
	.word	write_backup_delay
	.word	backup_update
	.word	backup_filename
	.size	update_backup, .-update_backup
	.align	2
	.global	update_backup_force
	.hidden	update_backup_force
	.type	update_backup_force, %function
update_backup_force:
	@ args = 0, pretend = 0, frame = 0
	@ frame_needed = 1, uses_anonymous_args = 0
	stmfd	sp!, {fp, lr}
	add	fp, sp, #4
	ldr	r0, .L745
	bl	save_backup
	ldmfd	sp!, {fp, pc}
.L746:
	.align	2
.L745:
	.word	backup_filename
	.size	update_backup_force, .-update_backup_force
	.align	2
	.global	skip_spaces
	.hidden	skip_spaces
	.type	skip_spaces, %function
skip_spaces:
	@ args = 0, pretend = 0, frame = 8
	@ frame_needed = 1, uses_anonymous_args = 0
	@ link register save eliminated.
	str	fp, [sp, #-4]!
	add	fp, sp, #0
	sub	sp, sp, #12
	str	r0, [fp, #-8]
	b	.L748
.L749:
	ldr	r3, [fp, #-8]
	add	r3, r3, #1
	str	r3, [fp, #-8]
.L748:
	ldr	r3, [fp, #-8]
	ldrb	r3, [r3, #0]	@ zero_extendqisi2
	cmp	r3, #32
	beq	.L749
	ldr	r3, [fp, #-8]
	mov	r0, r3
	add	sp, fp, #0
	ldmfd	sp!, {fp}
	bx	lr
	.size	skip_spaces, .-skip_spaces
	.align	2
	.global	parse_config_line
	.hidden	parse_config_line
	.type	parse_config_line, %function
parse_config_line:
	@ args = 0, pretend = 0, frame = 24
	@ frame_needed = 1, uses_anonymous_args = 0
	stmfd	sp!, {fp, lr}
	add	fp, sp, #4
	sub	sp, sp, #24
	str	r0, [fp, #-16]
	str	r1, [fp, #-20]
	str	r2, [fp, #-24]
	ldr	r3, [fp, #-16]
	str	r3, [fp, #-12]
	ldr	r3, [fp, #-16]
	ldrb	r3, [r3, #0]	@ zero_extendqisi2
	cmp	r3, #0
	beq	.L752
	ldr	r3, [fp, #-16]
	ldrb	r3, [r3, #0]	@ zero_extendqisi2
	cmp	r3, #35
	bne	.L753
.L752:
	mvn	r3, #0
	b	.L754
.L753:
	ldr	r0, [fp, #-12]
	mov	r1, #32
	bl	strchr
	mov	r3, r0
	str	r3, [fp, #-8]
	ldr	r3, [fp, #-8]
	cmp	r3, #0
	bne	.L755
	mvn	r3, #0
	b	.L754
.L755:
	ldr	r3, [fp, #-8]
	mov	r2, #0
	strb	r2, [r3, #0]
	ldr	r0, [fp, #-20]
	ldr	r1, [fp, #-12]
	bl	strcpy
	ldr	r3, [fp, #-8]
	add	r3, r3, #1
	mov	r0, r3
	bl	skip_spaces
	mov	r3, r0
	str	r3, [fp, #-8]
	ldr	r3, [fp, #-8]
	ldrb	r3, [r3, #0]	@ zero_extendqisi2
	cmp	r3, #61
	beq	.L756
	mvn	r3, #0
	b	.L754
.L756:
	ldr	r3, [fp, #-8]
	add	r3, r3, #1
	mov	r0, r3
	bl	skip_spaces
	mov	r3, r0
	str	r3, [fp, #-8]
	ldr	r0, [fp, #-24]
	ldr	r1, [fp, #-8]
	bl	strcpy
	ldr	r0, [fp, #-24]
	bl	strlen
	mov	r3, r0
	sub	r3, r3, #1
	ldr	r2, [fp, #-24]
	add	r3, r2, r3
	str	r3, [fp, #-8]
	ldr	r3, [fp, #-8]
	ldrb	r3, [r3, #0]	@ zero_extendqisi2
	cmp	r3, #10
	bne	.L757
	ldr	r3, [fp, #-8]
	sub	r3, r3, #1
	str	r3, [fp, #-8]
	ldr	r3, [fp, #-8]
	mov	r2, #0
	strb	r2, [r3, #0]
.L757:
	ldr	r3, [fp, #-8]
	ldrb	r3, [r3, #0]	@ zero_extendqisi2
	cmp	r3, #13
	bne	.L758
	ldr	r3, [fp, #-8]
	mov	r2, #0
	strb	r2, [r3, #0]
.L758:
	mov	r3, #0
.L754:
	mov	r0, r3
	sub	sp, fp, #4
	ldmfd	sp!, {fp, pc}
	.size	parse_config_line, .-parse_config_line
	.section	.rodata
	.align	2
.LC2:
	.ascii	"game_name\000"
	.align	2
.LC3:
	.ascii	"game_code\000"
	.align	2
.LC4:
	.ascii	"vender_code\000"
	.align	2
.LC5:
	.ascii	"idle_loop_eliminate_target\000"
	.align	2
.LC6:
	.ascii	"translation_gate_target\000"
	.align	2
.LC7:
	.ascii	"iwram_stack_optimize\000"
	.align	2
.LC8:
	.ascii	"no\000"
	.align	2
.LC9:
	.ascii	"flash_rom_type\000"
	.align	2
.LC10:
	.ascii	"128KB\000"
	.align	2
.LC11:
	.ascii	"bios_rom_hack_39\000"
	.align	2
.LC12:
	.ascii	"yes\000"
	.align	2
.LC13:
	.ascii	"bios_rom_hack_2C\000"
	.text
	.align	2
	.global	load_game_config
	.hidden	load_game_config
	.type	load_game_config, %function
load_game_config:
	@ args = 0, pretend = 0, frame = 1312
	@ frame_needed = 1, uses_anonymous_args = 0
	stmfd	sp!, {r4, fp, lr}
	add	fp, sp, #8
	sub	sp, sp, #1312
	sub	sp, sp, #4
	str	r0, [fp, #-1312]
	str	r1, [fp, #-1316]
	str	r2, [fp, #-1320]
	ldr	r3, .L790
	mvn	r2, #0
	str	r2, [r3, #0]
	ldr	r3, .L790+4
	mov	r2, #1
	str	r2, [r3, #0]
	ldr	r3, .L790+8
	mov	r2, #0
	strb	r2, [r3, #57]
	ldr	r3, .L790+8
	mov	r2, #0
	strb	r2, [r3, #44]
	ldr	r3, .L790+12
	mov	r2, #0
	str	r2, [r3, #0]
	ldr	r3, .L790+16
	mov	r2, #28
	str	r2, [r3, #0]
	sub	r3, fp, #1280
	sub	r3, r3, #12
	sub	r3, r3, #12
	mov	r0, r3
	bl	gameconfigFilePath
	sub	r3, fp, #1280
	sub	r3, r3, #12
	sub	r3, r3, #12
	mov	r0, r3
	ldr	r1, .L790+20
	bl	fopen
	mov	r3, r0
	str	r3, [fp, #-16]
	ldr	r3, [fp, #-16]
	cmp	r3, #0
	beq	.L761
	b	.L762
.L778:
	sub	r1, fp, #280
	sub	r2, fp, #536
	sub	r3, fp, #792
	mov	r0, r1
	mov	r1, r2
	mov	r2, r3
	bl	parse_config_line
	mov	r3, r0
	cmn	r3, #1
	beq	.L762
	sub	r3, fp, #536
	mov	r0, r3
	ldr	r1, .L790+24
	bl	strcmp
	mov	r3, r0
	cmp	r3, #0
	bne	.L780
	sub	r3, fp, #792
	mov	r0, r3
	ldr	r1, [fp, #-1312]
	bl	strcmp
	mov	r3, r0
	cmp	r3, #0
	bne	.L781
.L764:
	sub	r3, fp, #280
	mov	r0, r3
	mov	r1, #256
	ldr	r2, [fp, #-16]
	bl	fgets
	mov	r3, r0
	cmp	r3, #0
	beq	.L782
	sub	r1, fp, #280
	sub	r2, fp, #536
	sub	r3, fp, #792
	mov	r0, r1
	mov	r1, r2
	mov	r2, r3
	bl	parse_config_line
	mov	r3, r0
	cmn	r3, #1
	beq	.L783
	sub	r3, fp, #536
	mov	r0, r3
	ldr	r1, .L790+28
	bl	strcmp
	mov	r3, r0
	cmp	r3, #0
	bne	.L784
	sub	r3, fp, #792
	mov	r0, r3
	ldr	r1, [fp, #-1316]
	bl	strcmp
	mov	r3, r0
	cmp	r3, #0
	bne	.L785
.L766:
	sub	r3, fp, #280
	mov	r0, r3
	mov	r1, #256
	ldr	r2, [fp, #-16]
	bl	fgets
	mov	r3, r0
	cmp	r3, #0
	beq	.L786
	sub	r1, fp, #280
	sub	r2, fp, #536
	sub	r3, fp, #792
	mov	r0, r1
	mov	r1, r2
	mov	r2, r3
	bl	parse_config_line
	mov	r3, r0
	cmn	r3, #1
	beq	.L787
	sub	r3, fp, #536
	mov	r0, r3
	ldr	r1, .L790+32
	bl	strcmp
	mov	r3, r0
	cmp	r3, #0
	bne	.L788
	sub	r3, fp, #792
	mov	r0, r3
	ldr	r1, [fp, #-1320]
	bl	strcmp
	mov	r3, r0
	cmp	r3, #0
	beq	.L789
	b	.L762
.L777:
	sub	r1, fp, #280
	sub	r2, fp, #536
	sub	r3, fp, #792
	mov	r0, r1
	mov	r1, r2
	mov	r2, r3
	bl	parse_config_line
	mov	r3, r0
	cmn	r3, #1
	beq	.L769
	sub	r3, fp, #536
	mov	r0, r3
	ldr	r1, .L790+24
	bl	strcmp
	mov	r3, r0
	cmp	r3, #0
	bne	.L770
	ldr	r0, [fp, #-16]
	bl	fclose
	mov	r3, #0
	b	.L771
.L770:
	sub	r3, fp, #536
	mov	r0, r3
	ldr	r1, .L790+36
	bl	strcmp
	mov	r3, r0
	cmp	r3, #0
	bne	.L772
	sub	r3, fp, #792
	mov	r0, r3
	mov	r1, #0
	mov	r2, #16
	bl	strtol
	mov	r3, r0
	mov	r2, r3
	ldr	r3, .L790
	str	r2, [r3, #0]
.L772:
	sub	r3, fp, #536
	mov	r0, r3
	ldr	r1, .L790+40
	bl	strcmp
	mov	r3, r0
	cmp	r3, #0
	bne	.L773
	ldr	r3, .L790+12
	ldr	r3, [r3, #0]
	cmp	r3, #7
	bhi	.L773
	ldr	r3, .L790+12
	ldr	r4, [r3, #0]
	sub	r3, fp, #792
	mov	r0, r3
	mov	r1, #0
	mov	r2, #16
	bl	strtol
	mov	r3, r0
	mov	r2, r3
	ldr	r3, .L790+44
	str	r2, [r3, r4, asl #2]
	ldr	r3, .L790+12
	ldr	r3, [r3, #0]
	add	r2, r3, #1
	ldr	r3, .L790+12
	str	r2, [r3, #0]
.L773:
	sub	r3, fp, #536
	mov	r0, r3
	ldr	r1, .L790+48
	bl	strcmp
	mov	r3, r0
	cmp	r3, #0
	bne	.L774
	sub	r3, fp, #792
	mov	r0, r3
	ldr	r1, .L790+52
	bl	strcmp
	mov	r3, r0
	cmp	r3, #0
	bne	.L774
	ldr	r3, .L790+4
	mov	r2, #0
	str	r2, [r3, #0]
.L774:
	sub	r3, fp, #536
	mov	r0, r3
	ldr	r1, .L790+56
	bl	strcmp
	mov	r3, r0
	cmp	r3, #0
	bne	.L775
	sub	r3, fp, #792
	mov	r0, r3
	ldr	r1, .L790+60
	bl	strcmp
	mov	r3, r0
	cmp	r3, #0
	bne	.L775
	ldr	r3, .L790+16
	mov	r2, #9
	str	r2, [r3, #0]
.L775:
	sub	r3, fp, #536
	mov	r0, r3
	ldr	r1, .L790+64
	bl	strcmp
	mov	r3, r0
	cmp	r3, #0
	bne	.L776
	sub	r3, fp, #792
	mov	r0, r3
	ldr	r1, .L790+68
	bl	strcmp
	mov	r3, r0
	cmp	r3, #0
	bne	.L776
	ldr	r3, .L790+8
	mvn	r2, #63
	strb	r2, [r3, #57]
.L776:
	sub	r3, fp, #536
	mov	r0, r3
	ldr	r1, .L790+72
	bl	strcmp
	mov	r3, r0
	cmp	r3, #0
	bne	.L769
	sub	r3, fp, #792
	mov	r0, r3
	ldr	r1, .L790+68
	bl	strcmp
	mov	r3, r0
	cmp	r3, #0
	bne	.L769
	ldr	r3, .L790+8
	mov	r2, #2
	strb	r2, [r3, #44]
	b	.L769
.L789:
	mov	r0, r0	@ nop
.L769:
	sub	r3, fp, #280
	mov	r0, r3
	mov	r1, #256
	ldr	r2, [fp, #-16]
	bl	fgets
	mov	r3, r0
	cmp	r3, #0
	bne	.L777
	ldr	r0, [fp, #-16]
	bl	fclose
	mov	r3, #0
	b	.L771
.L780:
	mov	r0, r0	@ nop
	b	.L762
.L781:
	mov	r0, r0	@ nop
	b	.L762
.L782:
	mov	r0, r0	@ nop
	b	.L762
.L783:
	mov	r0, r0	@ nop
	b	.L762
.L784:
	mov	r0, r0	@ nop
	b	.L762
.L785:
	mov	r0, r0	@ nop
	b	.L762
.L786:
	mov	r0, r0	@ nop
	b	.L762
.L787:
	mov	r0, r0	@ nop
	b	.L762
.L788:
	mov	r0, r0	@ nop
.L762:
	sub	r3, fp, #280
	mov	r0, r3
	mov	r1, #256
	ldr	r2, [fp, #-16]
	bl	fgets
	mov	r3, r0
	cmp	r3, #0
	bne	.L778
	ldr	r0, [fp, #-16]
	bl	fclose
.L761:
	mvn	r3, #0
.L771:
	mov	r0, r3
	sub	sp, fp, #8
	ldmfd	sp!, {r4, fp, pc}
.L791:
	.align	2
.L790:
	.word	idle_loop_target_pc
	.word	iwram_stack_optimize
	.word	bios_rom
	.word	translation_gate_targets
	.word	flash_device_id
	.word	.LC0
	.word	.LC2
	.word	.LC3
	.word	.LC4
	.word	.LC5
	.word	.LC6
	.word	translation_gate_target_pc
	.word	.LC7
	.word	.LC8
	.word	.LC9
	.word	.LC10
	.word	.LC11
	.word	.LC12
	.word	.LC13
	.size	load_game_config, .-load_game_config
	.align	2
	.global	load_gamepak_raw
	.hidden	load_gamepak_raw
	.type	load_gamepak_raw, %function
load_gamepak_raw:
	@ args = 0, pretend = 0, frame = 16
	@ frame_needed = 1, uses_anonymous_args = 0
	stmfd	sp!, {fp, lr}
	add	fp, sp, #4
	sub	sp, sp, #16
	str	r0, [fp, #-16]
	ldr	r0, [fp, #-16]
	ldr	r1, .L799
	bl	fopen
	mov	r3, r0
	str	r3, [fp, #-12]
	ldr	r3, [fp, #-12]
	cmp	r3, #0
	beq	.L793
	ldr	r0, [fp, #-16]
	ldr	r1, [fp, #-12]
	bl	file_length
	mov	r3, r0
	str	r3, [fp, #-8]
	ldr	r3, .L799+4
	ldr	r3, [r3, #0]
	cmp	r3, #0
	beq	.L794
	ldr	r3, .L799+4
	ldr	r3, [r3, #0]
	mov	r0, r3
	bl	fclose
.L794:
	ldr	r3, .L799+8
	ldr	r3, [r3, #0]
	ldr	r2, [fp, #-8]
	cmp	r2, r3
	bhi	.L795
	ldr	r3, .L799+12
	ldr	r3, [r3, #0]
	mov	r0, r3
	ldr	r1, [fp, #-8]
	mov	r2, #1
	ldr	r3, [fp, #-12]
	bl	fread
	ldr	r0, [fp, #-12]
	bl	fclose
	ldr	r3, .L799+4
	mov	r2, #0
	str	r2, [r3, #0]
	b	.L796
.L795:
	ldr	r3, .L799+12
	ldr	r3, [r3, #0]
	mov	r0, r3
	mov	r1, #256
	mov	r2, #1
	ldr	r3, [fp, #-12]
	bl	fread
	ldr	r3, .L799+4
	ldr	r2, [fp, #-12]
	str	r2, [r3, #0]
.L796:
	ldr	r3, [fp, #-8]
	b	.L797
.L793:
	mvn	r3, #0
.L797:
	mov	r0, r3
	sub	sp, fp, #4
	ldmfd	sp!, {fp, pc}
.L800:
	.align	2
.L799:
	.word	.LC0
	.word	gamepak_file_large
	.word	gamepak_ram_buffer_size
	.word	gamepak_rom
	.size	load_gamepak_raw, .-load_gamepak_raw
	.hidden	gamepak_title
	.comm	gamepak_title,13,4
	.hidden	gamepak_code
	.comm	gamepak_code,5,4
	.hidden	gamepak_maker
	.comm	gamepak_maker,3,4
	.hidden	gamepak_filename
	.comm	gamepak_filename,512,4
	.section	.rodata
	.align	2
.LC14:
	.ascii	".zip\000"
	.align	2
.LC15:
	.ascii	".sav\000"
	.align	2
.LC16:
	.ascii	".cht\000"
	.text
	.align	2
	.global	load_gamepak
	.hidden	load_gamepak
	.type	load_gamepak, %function
load_gamepak:
	@ args = 0, pretend = 0, frame = 272
	@ frame_needed = 1, uses_anonymous_args = 0
	stmfd	sp!, {fp, lr}
	add	fp, sp, #4
	sub	sp, sp, #272
	str	r0, [fp, #-272]
	ldr	r0, [fp, #-272]
	mov	r1, #46
	bl	strrchr
	mov	r3, r0
	str	r3, [fp, #-12]
	ldr	r0, [fp, #-12]
	ldr	r1, .L807
	bl	strcmp
	mov	r3, r0
	cmp	r3, #0
	bne	.L802
	ldr	r0, [fp, #-272]
	bl	load_file_zip
	mov	r3, r0
	str	r3, [fp, #-8]
	b	.L803
.L802:
	ldr	r0, [fp, #-272]
	bl	load_gamepak_raw
	mov	r3, r0
	str	r3, [fp, #-8]
.L803:
	ldr	r3, [fp, #-8]
	cmn	r3, #1
	beq	.L804
	ldr	r3, [fp, #-8]
	add	r3, r3, #32512
	add	r3, r3, #255
	bic	r3, r3, #32512
	bic	r3, r3, #255
	ldr	r2, .L807+4
	str	r3, [r2, #0]
	ldr	r0, .L807+8
	ldr	r1, [fp, #-272]
	bl	strcpy
	ldr	r0, .L807+12
	ldr	r1, [fp, #-272]
	mov	r2, #512
	bl	strncpy
	ldr	r0, .L807+12
	ldr	r1, .L807+8
	ldr	r2, .L807+16
	bl	change_ext
	ldr	r0, .L807+8
	bl	load_backup
	ldr	r3, .L807+20
	ldr	r3, [r3, #0]
	add	r3, r3, #160
	ldr	r0, .L807+24
	mov	r1, r3
	mov	r2, #12
	bl	memcpy
	ldr	r3, .L807+20
	ldr	r3, [r3, #0]
	add	r3, r3, #172
	ldr	r0, .L807+28
	mov	r1, r3
	mov	r2, #4
	bl	memcpy
	ldr	r3, .L807+20
	ldr	r3, [r3, #0]
	add	r3, r3, #176
	ldr	r0, .L807+32
	mov	r1, r3
	mov	r2, #2
	bl	memcpy
	ldr	r3, .L807+24
	mov	r2, #0
	strb	r2, [r3, #12]
	ldr	r3, .L807+28
	mov	r2, #0
	strb	r2, [r3, #4]
	ldr	r3, .L807+32
	mov	r2, #0
	strb	r2, [r3, #2]
	ldr	r0, .L807+24
	ldr	r1, .L807+28
	ldr	r2, .L807+32
	bl	load_game_config
	bl	load_game_config_file
	sub	r3, fp, #268
	ldr	r0, .L807+12
	mov	r1, r3
	ldr	r2, .L807+36
	bl	change_ext
	sub	r3, fp, #268
	mov	r0, r3
	bl	add_cheats
	mov	r3, #0
	b	.L805
.L804:
	mvn	r3, #0
.L805:
	mov	r0, r3
	sub	sp, fp, #4
	ldmfd	sp!, {fp, pc}
.L808:
	.align	2
.L807:
	.word	.LC14
	.word	gamepak_size
	.word	backup_filename
	.word	gamepak_filename
	.word	.LC15
	.word	gamepak_rom
	.word	gamepak_title
	.word	gamepak_code
	.word	gamepak_maker
	.word	.LC16
	.size	load_gamepak, .-load_gamepak
	.align	2
	.global	load_bios
	.hidden	load_bios
	.type	load_bios, %function
load_bios:
	@ args = 0, pretend = 0, frame = 16
	@ frame_needed = 1, uses_anonymous_args = 0
	stmfd	sp!, {fp, lr}
	add	fp, sp, #4
	sub	sp, sp, #16
	str	r0, [fp, #-16]
	ldr	r0, [fp, #-16]
	ldr	r1, .L813
	bl	fopen
	mov	r3, r0
	str	r3, [fp, #-8]
	ldr	r3, [fp, #-8]
	cmp	r3, #0
	beq	.L810
	ldr	r0, .L813+4
	mov	r1, #16384
	mov	r2, #1
	ldr	r3, [fp, #-8]
	bl	fread
	ldr	r0, [fp, #-8]
	bl	fclose
	mov	r3, #0
	b	.L811
.L810:
	mvn	r3, #0
.L811:
	mov	r0, r3
	sub	sp, fp, #4
	ldmfd	sp!, {fp, pc}
.L814:
	.align	2
.L813:
	.word	.LC0
	.word	bios_rom
	.size	load_bios, .-load_bios
	.hidden	dma_region_map
	.global	dma_region_map
	.data
	.align	2
	.type	dma_region_map, %object
	.size	dma_region_map, 64
dma_region_map:
	.word	8
	.word	9
	.word	1
	.word	0
	.word	5
	.word	3
	.word	2
	.word	4
	.word	6
	.word	6
	.word	6
	.word	6
	.word	6
	.word	7
	.word	7
	.word	7
	.text
	.align	2
	.global	dma_transfer
	.hidden	dma_transfer
	.type	dma_transfer, %function
dma_transfer:
	@ args = 0, pretend = 0, frame = 10504
	@ frame_needed = 1, uses_anonymous_args = 0
	stmfd	sp!, {fp, lr}
	add	fp, sp, #4
	sub	sp, sp, #10496
	sub	sp, sp, #8
	ldr	r3, .L6775
	sub	r1, fp, #4
	str	r0, [r1, r3]
	ldr	r3, .L6775+4
	ldr	r2, .L6775
	sub	r0, fp, #4
	ldr	r2, [r0, r2]
	ldr	r2, [r2, #12]
	sub	r1, fp, #4
	str	r2, [r1, r3]
	ldr	r3, .L6775+88
	ldr	r2, .L6775
	sub	r0, fp, #4
	ldr	r2, [r0, r2]
	ldr	r2, [r2, #4]
	sub	r1, fp, #4
	str	r2, [r1, r3]
	ldr	r3, .L6775+112
	ldr	r2, .L6775
	sub	r0, fp, #4
	ldr	r2, [r0, r2]
	ldr	r2, [r2, #8]
	sub	r1, fp, #4
	str	r2, [r1, r3]
	ldr	r3, .L6775+140
	mov	r2, #0
	sub	r0, fp, #4
	str	r2, [r0, r3]
	ldr	r3, .L6775+112
	sub	r1, fp, #4
	ldr	r3, [r1, r3]
	mov	r2, r3, lsr #24
	ldr	r1, .L6775+112
	ldr	r3, .L6775+4
	sub	r0, fp, #4
	ldr	r1, [r0, r1]
	sub	r0, fp, #4
	ldr	r3, [r0, r3]
	add	r3, r1, r3
	sub	r3, r3, #1
	mov	r3, r3, lsr #24
	cmp	r2, r3
	beq	.L816
	ldr	r3, .L6775+112
	sub	r1, fp, #4
	ldr	r3, [r1, r3]
	and	r2, r3, #-16777216
	ldr	r3, .L6775+112
	sub	r0, fp, #4
	ldr	r3, [r0, r3]
	rsb	r2, r3, r2
	ldr	r3, .L6775+8
	add	r2, r2, #16777216
	sub	r1, fp, #4
	str	r2, [r1, r3]
	ldr	r3, .L6775+12
	ldr	r1, .L6775+4
	ldr	r2, .L6775+8
	sub	r0, fp, #4
	ldr	r1, [r0, r1]
	sub	r0, fp, #4
	ldr	r2, [r0, r2]
	rsb	r2, r2, r1
	sub	r1, fp, #4
	str	r2, [r1, r3]
	ldr	r3, .L6775
	sub	r2, fp, #4
	ldr	r3, [r2, r3]
	ldr	r2, .L6775+8
	sub	r0, fp, #4
	ldr	r2, [r0, r2]
	str	r2, [r3, #12]
	ldr	r3, .L6775
	sub	r1, fp, #4
	ldr	r0, [r1, r3]
	bl	dma_transfer
	ldr	r3, .L6775
	sub	r2, fp, #4
	ldr	r3, [r2, r3]
	ldr	r2, .L6775+4
	sub	r0, fp, #4
	ldr	r2, [r0, r2]
	str	r2, [r3, #12]
	ldr	r3, .L6775+4
	ldr	r2, .L6775+12
	sub	r1, fp, #4
	ldr	r2, [r1, r2]
	sub	r0, fp, #4
	str	r2, [r0, r3]
	ldr	r3, .L6775+112
	ldr	r1, .L6775+112
	ldr	r2, .L6775+8
	sub	r0, fp, #4
	ldr	r1, [r0, r1]
	sub	r0, fp, #4
	ldr	r2, [r0, r2]
	add	r2, r1, r2
	sub	r1, fp, #4
	str	r2, [r1, r3]
	ldr	r3, .L6775+88
	ldr	r1, .L6775+88
	ldr	r2, .L6775+8
	sub	r0, fp, #4
	ldr	r1, [r0, r1]
	sub	r0, fp, #4
	ldr	r2, [r0, r2]
	add	r2, r1, r2
	sub	r1, fp, #4
	str	r2, [r1, r3]
.L816:
	ldr	r3, .L6775
	sub	r2, fp, #4
	ldr	r3, [r2, r3]
	ldr	r3, [r3, #32]
	cmp	r3, #0
	bne	.L817
	ldr	r3, .L6775+88
	ldr	r2, .L6775+88
	sub	r0, fp, #4
	ldr	r2, [r0, r2]
	bic	r2, r2, #1
	sub	r1, fp, #4
	str	r2, [r1, r3]
	ldr	r3, .L6775+112
	ldr	r2, .L6775+112
	sub	r0, fp, #4
	ldr	r2, [r0, r2]
	bic	r2, r2, #1
	sub	r1, fp, #4
	str	r2, [r1, r3]
	ldr	r3, .L6775+16
	ldr	r2, [r3, #0]
	ldr	r3, .L6775+4
	sub	r0, fp, #4
	ldr	r3, [r0, r3]
	add	r2, r2, r3
	ldr	r3, .L6775+16
	str	r2, [r3, #0]
	ldr	r3, .L6775
	sub	r1, fp, #4
	ldr	r3, [r1, r3]
	ldr	r3, [r3, #28]
	mov	r2, r3, asl #2
	ldr	r3, .L6775
	sub	r0, fp, #4
	ldr	r3, [r0, r3]
	ldr	r3, [r3, #24]
	orr	r3, r2, r3
	cmp	r3, #14
	ldrls	pc, [pc, r3, asl #2]
	b	.L6590
.L834:
	.word	.L819
	.word	.L820
	.word	.L821
	.word	.L6590
	.word	.L823
	.word	.L824
	.word	.L825
	.word	.L6590
	.word	.L827
	.word	.L828
	.word	.L829
	.word	.L6590
	.word	.L831
	.word	.L832
	.word	.L833
.L819:
	ldr	r3, .L6775+20
	ldr	r2, .L6775+88
	sub	r1, fp, #4
	ldr	r2, [r1, r2]
	mov	r2, r2, lsr #24
	sub	r0, fp, #4
	str	r2, [r0, r3]
	ldr	r3, .L6775+24
	ldr	r2, .L6775+112
	sub	r1, fp, #4
	ldr	r2, [r1, r2]
	mov	r2, r2, lsr #24
	sub	r0, fp, #4
	str	r2, [r0, r3]
	ldr	r3, .L6775+20
	sub	r2, fp, #4
	ldr	r1, [r2, r3]
	ldr	r3, .L6775+28
	ldr	r2, .L6775+32
	ldr	r2, [r2, r1, asl #2]
	sub	r0, fp, #4
	str	r2, [r0, r3]
	ldr	r3, .L6775+24
	sub	r2, fp, #4
	ldr	r1, [r2, r3]
	ldr	r3, .L6775+36
	ldr	r2, .L6775+32
	ldr	r2, [r2, r1, asl #2]
	sub	r0, fp, #4
	str	r2, [r0, r3]
	ldr	r3, .L6775+36
	sub	r1, fp, #4
	ldr	r3, [r1, r3]
	mov	r2, r3, asl #4
	ldr	r3, .L6775+28
	sub	r0, fp, #4
	ldr	r3, [r0, r3]
	orr	r3, r2, r3
	cmp	r3, #120
	ldrls	pc, [pc, r3, asl #2]
	b	.L6591
.L899:
	.word	.L836
	.word	.L837
	.word	.L838
	.word	.L839
	.word	.L840
	.word	.L841
	.word	.L842
	.word	.L843
	.word	.L844
	.word	.L6591
	.word	.L6591
	.word	.L6591
	.word	.L6591
	.word	.L6591
	.word	.L6591
	.word	.L6591
	.word	.L845
	.word	.L846
	.word	.L847
	.word	.L848
	.word	.L849
	.word	.L850
	.word	.L851
	.word	.L852
	.word	.L853
	.word	.L6591
	.word	.L6591
	.word	.L6591
	.word	.L6591
	.word	.L6591
	.word	.L6591
	.word	.L6591
	.word	.L854
	.word	.L855
	.word	.L856
	.word	.L857
	.word	.L858
	.word	.L859
	.word	.L860
	.word	.L861
	.word	.L862
	.word	.L6591
	.word	.L6591
	.word	.L6591
	.word	.L6591
	.word	.L6591
	.word	.L6591
	.word	.L6591
	.word	.L863
	.word	.L864
	.word	.L865
	.word	.L866
	.word	.L867
	.word	.L868
	.word	.L869
	.word	.L870
	.word	.L871
	.word	.L6591
	.word	.L6591
	.word	.L6591
	.word	.L6591
	.word	.L6591
	.word	.L6591
	.word	.L872
	.word	.L873
	.word	.L874
	.word	.L875
	.word	.L876
	.word	.L877
	.word	.L878
	.word	.L879
	.word	.L880
	.word	.L881
	.word	.L6591
	.word	.L6591
	.word	.L6591
	.word	.L6591
	.word	.L6591
	.word	.L6591
	.word	.L6591
	.word	.L882
	.word	.L883
	.word	.L884
	.word	.L885
	.word	.L886
	.word	.L887
	.word	.L888
	.word	.L889
	.word	.L890
	.word	.L6591
	.word	.L6591
	.word	.L6591
	.word	.L6591
	.word	.L6591
	.word	.L6591
	.word	.L6591
	.word	.L6591
	.word	.L6591
	.word	.L6591
	.word	.L6591
	.word	.L6591
	.word	.L6591
	.word	.L6591
	.word	.L6591
	.word	.L6591
	.word	.L6591
	.word	.L6591
	.word	.L6591
	.word	.L6591
	.word	.L6591
	.word	.L6591
	.word	.L6591
	.word	.L891
	.word	.L892
	.word	.L893
	.word	.L894
	.word	.L895
	.word	.L896
	.word	.L897
	.word	.L6591
	.word	.L898
.L844:
	ldr	r3, .L6775+40
	mov	r2, #0
	sub	r1, fp, #4
	str	r2, [r1, r3]
	ldr	r3, .L6775+232
	mov	r2, #0
	sub	r0, fp, #4
	str	r2, [r0, r3]
	b	.L900
.L901:
	ldr	r3, .L6775+216
	mov	r2, #0
	sub	r1, fp, #4
	str	r2, [r1, r3]
	ldr	r3, .L6775+112
	sub	r2, fp, #4
	ldr	r3, [r2, r3]
	mov	r3, r3, asl #17
	mov	r3, r3, lsr #17
	add	r2, r3, #32768
	ldr	r3, .L6775+144
	add	r3, r2, r3
	ldr	r2, .L6775+216
	sub	r0, fp, #4
	ldr	r2, [r0, r2]
	mov	r2, r2, asl #16
	mov	r2, r2, lsr #16
	strh	r2, [r3, #0]	@ movhi
	ldr	r3, .L6775+112
	sub	r1, fp, #4
	ldr	r3, [r1, r3]
	mov	r3, r3, asl #17
	mov	r3, r3, lsr #17
	ldr	r2, .L6775+144
	add	r3, r3, r2
	ldrh	r3, [r3, #0]
	mov	r1, r3
	ldr	r3, .L6775+40
	ldr	r2, .L6775+40
	sub	r0, fp, #4
	ldr	r2, [r0, r2]
	orr	r2, r1, r2
	sub	r1, fp, #4
	str	r2, [r1, r3]
	ldr	r3, .L6775+88
	ldr	r2, .L6775+88
	sub	r0, fp, #4
	ldr	r2, [r0, r2]
	add	r2, r2, #2
	sub	r1, fp, #4
	str	r2, [r1, r3]
	ldr	r3, .L6775+112
	ldr	r2, .L6775+112
	sub	r0, fp, #4
	ldr	r2, [r0, r2]
	add	r2, r2, #2
	sub	r1, fp, #4
	str	r2, [r1, r3]
	ldr	r3, .L6775+232
	ldr	r2, .L6775+232
	sub	r0, fp, #4
	ldr	r2, [r0, r2]
	add	r2, r2, #1
	sub	r1, fp, #4
	str	r2, [r1, r3]
.L900:
	ldr	r2, .L6775+232
	ldr	r3, .L6775+4
	sub	r0, fp, #4
	ldr	r2, [r0, r2]
	sub	r1, fp, #4
	ldr	r3, [r1, r3]
	cmp	r2, r3
	bcc	.L901
	ldr	r3, .L6775
	sub	r2, fp, #4
	ldr	r3, [r2, r3]
	ldr	r2, .L6775+88
	sub	r0, fp, #4
	ldr	r2, [r0, r2]
	str	r2, [r3, #4]
	ldr	r3, .L6775
	sub	r1, fp, #4
	ldr	r3, [r1, r3]
	ldr	r2, .L6775+112
	sub	r0, fp, #4
	ldr	r2, [r0, r2]
	str	r2, [r3, #8]
	ldr	r3, .L6775+40
	sub	r1, fp, #4
	ldr	r3, [r1, r3]
	cmp	r3, #0
	beq	.L902
	ldr	r3, .L6775+140
	mov	r2, #2
	sub	r0, fp, #4
	str	r2, [r0, r3]
.L902:
	b	.L835
.L836:
	ldr	r3, .L6775+44
	mov	r2, #0
	sub	r1, fp, #4
	str	r2, [r1, r3]
	ldr	r3, .L6775+232
	mov	r2, #0
	sub	r0, fp, #4
	str	r2, [r0, r3]
	b	.L903
.L904:
	ldr	r3, .L6775+88
	sub	r1, fp, #4
	ldr	r3, [r1, r3]
	mov	r3, r3, asl #17
	mov	r3, r3, lsr #17
	add	r2, r3, #32768
	ldr	r3, .L6775+144
	add	r3, r2, r3
	ldrh	r2, [r3, #0]
	ldr	r3, .L6775+216
	sub	r0, fp, #4
	str	r2, [r0, r3]
	ldr	r3, .L6775+112
	sub	r1, fp, #4
	ldr	r3, [r1, r3]
	mov	r3, r3, asl #17
	mov	r3, r3, lsr #17
	add	r2, r3, #32768
	ldr	r3, .L6775+144
	add	r3, r2, r3
	ldr	r2, .L6775+216
	sub	r0, fp, #4
	ldr	r2, [r0, r2]
	mov	r2, r2, asl #16
	mov	r2, r2, lsr #16
	strh	r2, [r3, #0]	@ movhi
	ldr	r3, .L6775+112
	sub	r1, fp, #4
	ldr	r3, [r1, r3]
	mov	r3, r3, asl #17
	mov	r3, r3, lsr #17
	ldr	r2, .L6775+144
	add	r3, r3, r2
	ldrh	r3, [r3, #0]
	mov	r1, r3
	ldr	r3, .L6775+44
	ldr	r2, .L6775+44
	sub	r0, fp, #4
	ldr	r2, [r0, r2]
	orr	r2, r1, r2
	sub	r1, fp, #4
	str	r2, [r1, r3]
	ldr	r3, .L6775+88
	ldr	r2, .L6775+88
	sub	r0, fp, #4
	ldr	r2, [r0, r2]
	add	r2, r2, #2
	sub	r1, fp, #4
	str	r2, [r1, r3]
	ldr	r3, .L6775+112
	ldr	r2, .L6775+112
	sub	r0, fp, #4
	ldr	r2, [r0, r2]
	add	r2, r2, #2
	sub	r1, fp, #4
	str	r2, [r1, r3]
	ldr	r3, .L6775+232
	ldr	r2, .L6775+232
	sub	r0, fp, #4
	ldr	r2, [r0, r2]
	add	r2, r2, #1
	sub	r1, fp, #4
	str	r2, [r1, r3]
.L903:
	ldr	r2, .L6775+232
	ldr	r3, .L6775+4
	sub	r0, fp, #4
	ldr	r2, [r0, r2]
	sub	r1, fp, #4
	ldr	r3, [r1, r3]
	cmp	r2, r3
	bcc	.L904
	ldr	r3, .L6775
	sub	r2, fp, #4
	ldr	r3, [r2, r3]
	ldr	r2, .L6775+88
	sub	r0, fp, #4
	ldr	r2, [r0, r2]
	str	r2, [r3, #4]
	ldr	r3, .L6775
	sub	r1, fp, #4
	ldr	r3, [r1, r3]
	ldr	r2, .L6775+112
	sub	r0, fp, #4
	ldr	r2, [r0, r2]
	str	r2, [r3, #8]
	ldr	r3, .L6775+44
	sub	r1, fp, #4
	ldr	r3, [r1, r3]
	cmp	r3, #0
	beq	.L905
	ldr	r3, .L6775+140
	mov	r2, #2
	sub	r0, fp, #4
	str	r2, [r0, r3]
.L905:
	b	.L835
.L837:
	ldr	r3, .L6775+48
	ldr	r2, .L6775+88
	sub	r1, fp, #4
	ldr	r2, [r1, r2]
	mov	r2, r2, lsr #15
	sub	r0, fp, #4
	str	r2, [r0, r3]
	ldr	r3, .L6775+48
	sub	r2, fp, #4
	ldr	r1, [r2, r3]
	ldr	r3, .L6775+52
	ldr	r2, .L6775+172
	ldr	r2, [r2, r1, asl #2]
	sub	r0, fp, #4
	str	r2, [r0, r3]
	ldr	r3, .L6775+56
	mov	r2, #0
	sub	r1, fp, #4
	str	r2, [r1, r3]
	ldr	r3, .L6775+232
	mov	r2, #0
	sub	r0, fp, #4
	str	r2, [r0, r3]
	b	.L906
.L908:
	ldr	r3, .L6775+60
	ldr	r2, .L6775+88
	sub	r1, fp, #4
	ldr	r2, [r1, r2]
	mov	r2, r2, lsr #15
	sub	r0, fp, #4
	str	r2, [r0, r3]
	ldr	r2, .L6775+60
	ldr	r3, .L6775+48
	sub	r1, fp, #4
	ldr	r2, [r1, r2]
	sub	r0, fp, #4
	ldr	r3, [r0, r3]
	cmp	r2, r3
	beq	.L907
	ldr	r3, .L6775+48
	ldr	r2, .L6775+60
	sub	r1, fp, #4
	ldr	r2, [r1, r2]
	sub	r0, fp, #4
	str	r2, [r0, r3]
	ldr	r3, .L6775+48
	sub	r2, fp, #4
	ldr	r1, [r2, r3]
	ldr	r3, .L6775+52
	ldr	r2, .L6775+172
	ldr	r2, [r2, r1, asl #2]
	sub	r0, fp, #4
	str	r2, [r0, r3]
.L907:
	ldr	r3, .L6775+88
	sub	r1, fp, #4
	ldr	r3, [r1, r3]
	mov	r3, r3, asl #17
	mov	r3, r3, lsr #17
	ldr	r2, .L6775+52
	sub	r0, fp, #4
	ldr	r2, [r0, r2]
	add	r3, r3, r2
	ldrh	r2, [r3, #0]
	ldr	r3, .L6775+216
	sub	r1, fp, #4
	str	r2, [r1, r3]
	ldr	r3, .L6775+112
	sub	r2, fp, #4
	ldr	r3, [r2, r3]
	mov	r3, r3, asl #17
	mov	r3, r3, lsr #17
	add	r2, r3, #32768
	ldr	r3, .L6775+144
	add	r3, r2, r3
	ldr	r2, .L6775+216
	sub	r0, fp, #4
	ldr	r2, [r0, r2]
	mov	r2, r2, asl #16
	mov	r2, r2, lsr #16
	strh	r2, [r3, #0]	@ movhi
	ldr	r3, .L6775+112
	sub	r1, fp, #4
	ldr	r3, [r1, r3]
	mov	r3, r3, asl #17
	mov	r3, r3, lsr #17
	ldr	r2, .L6775+144
	add	r3, r3, r2
	ldrh	r3, [r3, #0]
	mov	r1, r3
	ldr	r3, .L6775+56
	ldr	r2, .L6775+56
	sub	r0, fp, #4
	ldr	r2, [r0, r2]
	orr	r2, r1, r2
	sub	r1, fp, #4
	str	r2, [r1, r3]
	ldr	r3, .L6775+88
	ldr	r2, .L6775+88
	sub	r0, fp, #4
	ldr	r2, [r0, r2]
	add	r2, r2, #2
	sub	r1, fp, #4
	str	r2, [r1, r3]
	ldr	r3, .L6775+112
	ldr	r2, .L6775+112
	sub	r0, fp, #4
	ldr	r2, [r0, r2]
	add	r2, r2, #2
	sub	r1, fp, #4
	str	r2, [r1, r3]
	ldr	r3, .L6775+232
	ldr	r2, .L6775+232
	sub	r0, fp, #4
	ldr	r2, [r0, r2]
	add	r2, r2, #1
	sub	r1, fp, #4
	str	r2, [r1, r3]
.L906:
	ldr	r2, .L6775+232
	ldr	r3, .L6775+4
	sub	r0, fp, #4
	ldr	r2, [r0, r2]
	sub	r1, fp, #4
	ldr	r3, [r1, r3]
	cmp	r2, r3
	bcc	.L908
	ldr	r3, .L6775
	sub	r2, fp, #4
	ldr	r3, [r2, r3]
	ldr	r2, .L6775+88
	sub	r0, fp, #4
	ldr	r2, [r0, r2]
	str	r2, [r3, #4]
	ldr	r3, .L6775
	sub	r1, fp, #4
	ldr	r3, [r1, r3]
	ldr	r2, .L6775+112
	sub	r0, fp, #4
	ldr	r2, [r0, r2]
	str	r2, [r3, #8]
	ldr	r3, .L6775+56
	sub	r1, fp, #4
	ldr	r3, [r1, r3]
	cmp	r3, #0
	beq	.L909
	ldr	r3, .L6775+140
	mov	r2, #2
	sub	r0, fp, #4
	str	r2, [r0, r3]
.L909:
	b	.L835
.L838:
	ldr	r3, .L6775+64
	mov	r2, #0
	sub	r1, fp, #4
	str	r2, [r1, r3]
	ldr	r3, .L6775+232
	mov	r2, #0
	sub	r0, fp, #4
	str	r2, [r0, r3]
	b	.L910
.L911:
	ldr	r3, .L6775+88
	sub	r1, fp, #4
	ldr	r3, [r1, r3]
	bic	r3, r3, #-16777216
	bic	r3, r3, #16646144
	ldr	r2, .L6775+200
	add	r3, r3, r2
	ldrh	r2, [r3, #0]
	ldr	r3, .L6775+216
	sub	r0, fp, #4
	str	r2, [r0, r3]
	ldr	r3, .L6775+112
	sub	r1, fp, #4
	ldr	r3, [r1, r3]
	mov	r3, r3, asl #17
	mov	r3, r3, lsr #17
	add	r2, r3, #32768
	ldr	r3, .L6775+144
	add	r3, r2, r3
	ldr	r2, .L6775+216
	sub	r0, fp, #4
	ldr	r2, [r0, r2]
	mov	r2, r2, asl #16
	mov	r2, r2, lsr #16
	strh	r2, [r3, #0]	@ movhi
	ldr	r3, .L6775+112
	sub	r1, fp, #4
	ldr	r3, [r1, r3]
	mov	r3, r3, asl #17
	mov	r3, r3, lsr #17
	ldr	r2, .L6775+144
	add	r3, r3, r2
	ldrh	r3, [r3, #0]
	mov	r1, r3
	ldr	r3, .L6775+64
	ldr	r2, .L6775+64
	sub	r0, fp, #4
	ldr	r2, [r0, r2]
	orr	r2, r1, r2
	sub	r1, fp, #4
	str	r2, [r1, r3]
	ldr	r3, .L6775+88
	ldr	r2, .L6775+88
	sub	r0, fp, #4
	ldr	r2, [r0, r2]
	add	r2, r2, #2
	sub	r1, fp, #4
	str	r2, [r1, r3]
	ldr	r3, .L6775+112
	ldr	r2, .L6775+112
	sub	r0, fp, #4
	ldr	r2, [r0, r2]
	add	r2, r2, #2
	sub	r1, fp, #4
	str	r2, [r1, r3]
	ldr	r3, .L6775+232
	ldr	r2, .L6775+232
	sub	r0, fp, #4
	ldr	r2, [r0, r2]
	add	r2, r2, #1
	sub	r1, fp, #4
	str	r2, [r1, r3]
.L910:
	ldr	r2, .L6775+232
	ldr	r3, .L6775+4
	sub	r0, fp, #4
	ldr	r2, [r0, r2]
	sub	r1, fp, #4
	ldr	r3, [r1, r3]
	cmp	r2, r3
	bcc	.L911
	ldr	r3, .L6775
	sub	r2, fp, #4
	ldr	r3, [r2, r3]
	ldr	r2, .L6775+88
	sub	r0, fp, #4
	ldr	r2, [r0, r2]
	str	r2, [r3, #4]
	ldr	r3, .L6775
	sub	r1, fp, #4
	ldr	r3, [r1, r3]
	ldr	r2, .L6775+112
	sub	r0, fp, #4
	ldr	r2, [r0, r2]
	str	r2, [r3, #8]
	ldr	r3, .L6775+64
	sub	r1, fp, #4
	ldr	r3, [r1, r3]
	cmp	r3, #0
	beq	.L912
	ldr	r3, .L6775+140
	mov	r2, #2
	sub	r0, fp, #4
	str	r2, [r0, r3]
.L912:
	b	.L835
.L839:
	ldr	r3, .L6775+68
	mov	r2, #0
	sub	r1, fp, #4
	str	r2, [r1, r3]
	ldr	r3, .L6775+232
	mov	r2, #0
	sub	r0, fp, #4
	str	r2, [r0, r3]
	b	.L913
.L914:
	ldr	r3, .L6775+88
	sub	r1, fp, #4
	ldr	r3, [r1, r3]
	mov	r3, r3, asl #22
	mov	r3, r3, lsr #22
	ldr	r2, .L6775+72
	add	r3, r3, r2
	ldrh	r2, [r3, #0]
	ldr	r3, .L6775+216
	sub	r0, fp, #4
	str	r2, [r0, r3]
	ldr	r3, .L6775+112
	sub	r1, fp, #4
	ldr	r3, [r1, r3]
	mov	r3, r3, asl #17
	mov	r3, r3, lsr #17
	add	r2, r3, #32768
	ldr	r3, .L6775+144
	add	r3, r2, r3
	ldr	r2, .L6775+216
	sub	r0, fp, #4
	ldr	r2, [r0, r2]
	mov	r2, r2, asl #16
	mov	r2, r2, lsr #16
	strh	r2, [r3, #0]	@ movhi
	ldr	r3, .L6775+112
	sub	r1, fp, #4
	ldr	r3, [r1, r3]
	mov	r3, r3, asl #17
	mov	r3, r3, lsr #17
	ldr	r2, .L6775+144
	add	r3, r3, r2
	ldrh	r3, [r3, #0]
	mov	r1, r3
	ldr	r3, .L6775+68
	ldr	r2, .L6775+68
	sub	r0, fp, #4
	ldr	r2, [r0, r2]
	orr	r2, r1, r2
	sub	r1, fp, #4
	str	r2, [r1, r3]
	ldr	r3, .L6775+88
	ldr	r2, .L6775+88
	sub	r0, fp, #4
	ldr	r2, [r0, r2]
	add	r2, r2, #2
	sub	r1, fp, #4
	str	r2, [r1, r3]
	ldr	r3, .L6775+112
	ldr	r2, .L6775+112
	sub	r0, fp, #4
	ldr	r2, [r0, r2]
	add	r2, r2, #2
	sub	r1, fp, #4
	str	r2, [r1, r3]
	ldr	r3, .L6775+232
	ldr	r2, .L6775+232
	sub	r0, fp, #4
	ldr	r2, [r0, r2]
	add	r2, r2, #1
	sub	r1, fp, #4
	str	r2, [r1, r3]
.L913:
	ldr	r2, .L6775+232
	ldr	r3, .L6775+4
	sub	r0, fp, #4
	ldr	r2, [r0, r2]
	sub	r1, fp, #4
	ldr	r3, [r1, r3]
	cmp	r2, r3
	bcc	.L914
	ldr	r3, .L6775
	sub	r2, fp, #4
	ldr	r3, [r2, r3]
	ldr	r2, .L6775+88
	sub	r0, fp, #4
	ldr	r2, [r0, r2]
	str	r2, [r3, #4]
	ldr	r3, .L6775
	sub	r1, fp, #4
	ldr	r3, [r1, r3]
	ldr	r2, .L6775+112
	sub	r0, fp, #4
	ldr	r2, [r0, r2]
	str	r2, [r3, #8]
	ldr	r3, .L6775+68
	sub	r1, fp, #4
	ldr	r3, [r1, r3]
	cmp	r3, #0
	beq	.L915
	ldr	r3, .L6775+140
	mov	r2, #2
	sub	r0, fp, #4
	str	r2, [r0, r3]
.L915:
	b	.L835
.L840:
	ldr	r3, .L6775+76
	mov	r2, #0
	sub	r1, fp, #4
	str	r2, [r1, r3]
	ldr	r3, .L6775+232
	mov	r2, #0
	sub	r0, fp, #4
	str	r2, [r0, r3]
	b	.L916
.L917:
	ldr	r3, .L6775+88
	sub	r1, fp, #4
	ldr	r3, [r1, r3]
	mov	r3, r3, asl #22
	mov	r3, r3, lsr #22
	ldr	r2, .L6775+80
	add	r3, r3, r2
	ldrh	r2, [r3, #0]
	ldr	r3, .L6775+216
	sub	r0, fp, #4
	str	r2, [r0, r3]
	ldr	r3, .L6775+112
	sub	r1, fp, #4
	ldr	r3, [r1, r3]
	mov	r3, r3, asl #17
	mov	r3, r3, lsr #17
	add	r2, r3, #32768
	ldr	r3, .L6775+144
	add	r3, r2, r3
	ldr	r2, .L6775+216
	sub	r0, fp, #4
	ldr	r2, [r0, r2]
	mov	r2, r2, asl #16
	mov	r2, r2, lsr #16
	strh	r2, [r3, #0]	@ movhi
	ldr	r3, .L6775+112
	sub	r1, fp, #4
	ldr	r3, [r1, r3]
	mov	r3, r3, asl #17
	mov	r3, r3, lsr #17
	ldr	r2, .L6775+144
	add	r3, r3, r2
	ldrh	r3, [r3, #0]
	mov	r1, r3
	ldr	r3, .L6775+76
	ldr	r2, .L6775+76
	sub	r0, fp, #4
	ldr	r2, [r0, r2]
	orr	r2, r1, r2
	sub	r1, fp, #4
	str	r2, [r1, r3]
	ldr	r3, .L6775+88
	ldr	r2, .L6775+88
	sub	r0, fp, #4
	ldr	r2, [r0, r2]
	add	r2, r2, #2
	sub	r1, fp, #4
	str	r2, [r1, r3]
	ldr	r3, .L6775+112
	ldr	r2, .L6775+112
	sub	r0, fp, #4
	ldr	r2, [r0, r2]
	add	r2, r2, #2
	sub	r1, fp, #4
	str	r2, [r1, r3]
	ldr	r3, .L6775+232
	ldr	r2, .L6775+232
	sub	r0, fp, #4
	ldr	r2, [r0, r2]
	add	r2, r2, #1
	sub	r1, fp, #4
	str	r2, [r1, r3]
.L916:
	ldr	r2, .L6775+232
	ldr	r3, .L6775+4
	sub	r0, fp, #4
	ldr	r2, [r0, r2]
	sub	r1, fp, #4
	ldr	r3, [r1, r3]
	cmp	r2, r3
	bcc	.L917
	ldr	r3, .L6775
	sub	r2, fp, #4
	ldr	r3, [r2, r3]
	ldr	r2, .L6775+88
	sub	r0, fp, #4
	ldr	r2, [r0, r2]
	str	r2, [r3, #4]
	ldr	r3, .L6775
	sub	r1, fp, #4
	ldr	r3, [r1, r3]
	ldr	r2, .L6775+112
	sub	r0, fp, #4
	ldr	r2, [r0, r2]
	str	r2, [r3, #8]
	ldr	r3, .L6775+76
	sub	r1, fp, #4
	ldr	r3, [r1, r3]
	cmp	r3, #0
	beq	.L918
	ldr	r3, .L6775+140
	mov	r2, #2
	sub	r0, fp, #4
	str	r2, [r0, r3]
.L918:
	b	.L835
.L841:
	ldr	r3, .L6775+92
	mov	r2, #0
	sub	r1, fp, #4
	str	r2, [r1, r3]
	ldr	r3, .L6775+232
	mov	r2, #0
	sub	r0, fp, #4
	str	r2, [r0, r3]
	b	.L919
.L6776:
	.align	2
.L6775:
	.word	-10500
	.word	-10492
	.word	-10472
	.word	-10468
	.word	cycle_dma16_words
	.word	-10464
	.word	-10460
	.word	-10456
	.word	dma_region_map
	.word	-10452
	.word	-10448
	.word	-10444
	.word	-10436
	.word	-10432
	.word	-10428
	.word	-10440
	.word	-10424
	.word	-10420
	.word	palette_ram
	.word	-10416
	.word	oam_ram
	.word	io_registers
	.word	-10484
	.word	-10412
	.word	gamepak_size
	.word	-10408
	.word	-10404
	.word	-10400
	.word	-10480
	.word	-10396
	.word	-10392
	.word	-10384
	.word	-10380
	.word	-10376
	.word	-10388
	.word	-10476
	.word	iwram
	.word	-10368
	.word	-10364
	.word	-10360
	.word	-10372
	.word	-10356
	.word	-10352
	.word	memory_map_read
	.word	-10348
	.word	-10340
	.word	-10336
	.word	-10332
	.word	-10344
	.word	-10476
	.word	vram
	.word	-10324
	.word	-10320
	.word	memory_map_write
	.word	-10488
	.word	-10316
	.word	-10328
	.word	-10480
	.word	-10496
	.word	-10492
	.word	-10484
	.word	-10500
.L920:
	ldr	r3, .L6775+88
	sub	r1, fp, #4
	ldr	r3, [r1, r3]
	mov	r3, r3, asl #17
	mov	r3, r3, lsr #17
	ldr	r2, .L6775+84
	add	r3, r3, r2
	ldrh	r2, [r3, #0]
	ldr	r3, .L6775+216
	sub	r0, fp, #4
	str	r2, [r0, r3]
	ldr	r3, .L6775+112
	sub	r1, fp, #4
	ldr	r3, [r1, r3]
	mov	r3, r3, asl #17
	mov	r3, r3, lsr #17
	add	r2, r3, #32768
	ldr	r3, .L6775+144
	add	r3, r2, r3
	ldr	r2, .L6775+216
	sub	r0, fp, #4
	ldr	r2, [r0, r2]
	mov	r2, r2, asl #16
	mov	r2, r2, lsr #16
	strh	r2, [r3, #0]	@ movhi
	ldr	r3, .L6775+112
	sub	r1, fp, #4
	ldr	r3, [r1, r3]
	mov	r3, r3, asl #17
	mov	r3, r3, lsr #17
	ldr	r2, .L6775+144
	add	r3, r3, r2
	ldrh	r3, [r3, #0]
	mov	r1, r3
	ldr	r3, .L6775+92
	ldr	r2, .L6775+92
	sub	r0, fp, #4
	ldr	r2, [r0, r2]
	orr	r2, r1, r2
	sub	r1, fp, #4
	str	r2, [r1, r3]
	ldr	r3, .L6775+88
	ldr	r2, .L6775+88
	sub	r0, fp, #4
	ldr	r2, [r0, r2]
	add	r2, r2, #2
	sub	r1, fp, #4
	str	r2, [r1, r3]
	ldr	r3, .L6775+112
	ldr	r2, .L6775+112
	sub	r0, fp, #4
	ldr	r2, [r0, r2]
	add	r2, r2, #2
	sub	r1, fp, #4
	str	r2, [r1, r3]
	ldr	r3, .L6775+232
	ldr	r2, .L6775+232
	sub	r0, fp, #4
	ldr	r2, [r0, r2]
	add	r2, r2, #1
	sub	r1, fp, #4
	str	r2, [r1, r3]
.L919:
	ldr	r2, .L6775+232
	ldr	r3, .L6775+236
	sub	r0, fp, #4
	ldr	r2, [r0, r2]
	sub	r1, fp, #4
	ldr	r3, [r1, r3]
	cmp	r2, r3
	bcc	.L920
	ldr	r3, .L6775+244
	sub	r2, fp, #4
	ldr	r3, [r2, r3]
	ldr	r2, .L6775+240
	sub	r0, fp, #4
	ldr	r2, [r0, r2]
	str	r2, [r3, #4]
	ldr	r3, .L6775+244
	sub	r1, fp, #4
	ldr	r3, [r1, r3]
	ldr	r2, .L6775+112
	sub	r0, fp, #4
	ldr	r2, [r0, r2]
	str	r2, [r3, #8]
	ldr	r3, .L6775+92
	sub	r1, fp, #4
	ldr	r3, [r1, r3]
	cmp	r3, #0
	beq	.L921
	ldr	r3, .L6775+140
	mov	r2, #2
	sub	r0, fp, #4
	str	r2, [r0, r3]
.L921:
	b	.L835
.L842:
	ldr	r3, .L6775+104
	ldr	r2, .L6775+240
	sub	r1, fp, #4
	ldr	r2, [r1, r2]
	mov	r2, r2, lsr #15
	sub	r0, fp, #4
	str	r2, [r0, r3]
	ldr	r3, .L6775+104
	sub	r2, fp, #4
	ldr	r1, [r2, r3]
	ldr	r3, .L6775+108
	ldr	r2, .L6775+172
	ldr	r2, [r2, r1, asl #2]
	sub	r0, fp, #4
	str	r2, [r0, r3]
	ldr	r3, .L6775+108
	sub	r1, fp, #4
	ldr	r3, [r1, r3]
	cmp	r3, #0
	bne	.L922
	ldr	r3, .L6775+240
	sub	r2, fp, #4
	ldr	r3, [r2, r3]
	bic	r2, r3, #-33554432
	ldr	r3, .L6775+96
	ldr	r3, [r3, #0]
	cmp	r2, r3
	bcs	.L6592
	ldr	r3, .L6775+104
	sub	r0, fp, #4
	ldr	r3, [r0, r3]
	mov	r3, r3, asl #22
	mov	r3, r3, lsr #22
	mov	r0, r3
	bl	load_gamepak_page
	mov	r2, r0
	ldr	r3, .L6775+108
	sub	r1, fp, #4
	str	r2, [r1, r3]
.L922:
	ldr	r3, .L6775+116
	mov	r2, #0
	sub	r0, fp, #4
	str	r2, [r0, r3]
	ldr	r3, .L6775+232
	mov	r2, #0
	sub	r1, fp, #4
	str	r2, [r1, r3]
	b	.L923
.L925:
	ldr	r3, .L6775+100
	ldr	r2, .L6775+240
	sub	r0, fp, #4
	ldr	r2, [r0, r2]
	mov	r2, r2, lsr #15
	sub	r1, fp, #4
	str	r2, [r1, r3]
	ldr	r2, .L6775+100
	ldr	r3, .L6775+104
	sub	r0, fp, #4
	ldr	r2, [r0, r2]
	sub	r1, fp, #4
	ldr	r3, [r1, r3]
	cmp	r2, r3
	beq	.L924
	ldr	r3, .L6775+104
	ldr	r2, .L6775+100
	sub	r0, fp, #4
	ldr	r2, [r0, r2]
	sub	r1, fp, #4
	str	r2, [r1, r3]
	ldr	r3, .L6775+104
	sub	r2, fp, #4
	ldr	r1, [r2, r3]
	ldr	r3, .L6775+108
	ldr	r2, .L6775+172
	ldr	r2, [r2, r1, asl #2]
	sub	r0, fp, #4
	str	r2, [r0, r3]
	ldr	r3, .L6775+108
	sub	r1, fp, #4
	ldr	r3, [r1, r3]
	cmp	r3, #0
	bne	.L924
	ldr	r3, .L6775+104
	sub	r2, fp, #4
	ldr	r3, [r2, r3]
	mov	r3, r3, asl #22
	mov	r3, r3, lsr #22
	mov	r0, r3
	bl	load_gamepak_page
	mov	r2, r0
	ldr	r3, .L6775+108
	sub	r0, fp, #4
	str	r2, [r0, r3]
.L924:
	ldr	r3, .L6775+240
	sub	r1, fp, #4
	ldr	r3, [r1, r3]
	mov	r3, r3, asl #17
	mov	r3, r3, lsr #17
	ldr	r2, .L6775+108
	sub	r0, fp, #4
	ldr	r2, [r0, r2]
	add	r3, r3, r2
	ldrh	r2, [r3, #0]
	ldr	r3, .L6775+216
	sub	r1, fp, #4
	str	r2, [r1, r3]
	ldr	r3, .L6775+112
	sub	r2, fp, #4
	ldr	r3, [r2, r3]
	mov	r3, r3, asl #17
	mov	r3, r3, lsr #17
	add	r2, r3, #32768
	ldr	r3, .L6775+144
	add	r3, r2, r3
	ldr	r2, .L6775+216
	sub	r0, fp, #4
	ldr	r2, [r0, r2]
	mov	r2, r2, asl #16
	mov	r2, r2, lsr #16
	strh	r2, [r3, #0]	@ movhi
	ldr	r3, .L6775+112
	sub	r1, fp, #4
	ldr	r3, [r1, r3]
	mov	r3, r3, asl #17
	mov	r3, r3, lsr #17
	ldr	r2, .L6775+144
	add	r3, r3, r2
	ldrh	r3, [r3, #0]
	mov	r1, r3
	ldr	r3, .L6775+116
	ldr	r2, .L6775+116
	sub	r0, fp, #4
	ldr	r2, [r0, r2]
	orr	r2, r1, r2
	sub	r1, fp, #4
	str	r2, [r1, r3]
	ldr	r3, .L6775+240
	ldr	r2, .L6775+240
	sub	r0, fp, #4
	ldr	r2, [r0, r2]
	add	r2, r2, #2
	sub	r1, fp, #4
	str	r2, [r1, r3]
	ldr	r3, .L6775+112
	ldr	r2, .L6775+112
	sub	r0, fp, #4
	ldr	r2, [r0, r2]
	add	r2, r2, #2
	sub	r1, fp, #4
	str	r2, [r1, r3]
	ldr	r3, .L6775+232
	ldr	r2, .L6775+232
	sub	r0, fp, #4
	ldr	r2, [r0, r2]
	add	r2, r2, #1
	sub	r1, fp, #4
	str	r2, [r1, r3]
.L923:
	ldr	r2, .L6775+232
	ldr	r3, .L6775+236
	sub	r0, fp, #4
	ldr	r2, [r0, r2]
	sub	r1, fp, #4
	ldr	r3, [r1, r3]
	cmp	r2, r3
	bcc	.L925
	ldr	r3, .L6775+244
	sub	r2, fp, #4
	ldr	r3, [r2, r3]
	ldr	r2, .L6775+240
	sub	r0, fp, #4
	ldr	r2, [r0, r2]
	str	r2, [r3, #4]
	ldr	r3, .L6775+244
	sub	r1, fp, #4
	ldr	r3, [r1, r3]
	ldr	r2, .L6775+112
	sub	r0, fp, #4
	ldr	r2, [r0, r2]
	str	r2, [r3, #8]
	ldr	r3, .L6775+116
	sub	r1, fp, #4
	ldr	r3, [r1, r3]
	cmp	r3, #0
	beq	.L926
	ldr	r3, .L6775+140
	mov	r2, #2
	sub	r0, fp, #4
	str	r2, [r0, r3]
.L926:
	b	.L835
.L843:
	ldr	r3, .L6775+120
	mov	r2, #0
	sub	r1, fp, #4
	str	r2, [r1, r3]
	ldr	r3, .L6775+232
	mov	r2, #0
	sub	r0, fp, #4
	str	r2, [r0, r3]
	b	.L927
.L928:
	ldr	r3, .L6775+240
	sub	r1, fp, #4
	ldr	r0, [r1, r3]
	bl	read_memory16
	mov	r2, r0
	ldr	r3, .L6775+216
	sub	r0, fp, #4
	str	r2, [r0, r3]
	ldr	r3, .L6775+228
	sub	r1, fp, #4
	ldr	r3, [r1, r3]
	mov	r3, r3, asl #17
	mov	r3, r3, lsr #17
	add	r2, r3, #32768
	ldr	r3, .L6775+144
	add	r3, r2, r3
	ldr	r2, .L6775+216
	sub	r0, fp, #4
	ldr	r2, [r0, r2]
	mov	r2, r2, asl #16
	mov	r2, r2, lsr #16
	strh	r2, [r3, #0]	@ movhi
	ldr	r3, .L6775+228
	sub	r1, fp, #4
	ldr	r3, [r1, r3]
	mov	r3, r3, asl #17
	mov	r3, r3, lsr #17
	ldr	r2, .L6775+144
	add	r3, r3, r2
	ldrh	r3, [r3, #0]
	mov	r1, r3
	ldr	r3, .L6775+120
	ldr	r2, .L6775+120
	sub	r0, fp, #4
	ldr	r2, [r0, r2]
	orr	r2, r1, r2
	sub	r1, fp, #4
	str	r2, [r1, r3]
	ldr	r3, .L6775+240
	ldr	r2, .L6775+240
	sub	r0, fp, #4
	ldr	r2, [r0, r2]
	add	r2, r2, #2
	sub	r1, fp, #4
	str	r2, [r1, r3]
	ldr	r3, .L6775+228
	ldr	r2, .L6775+228
	sub	r0, fp, #4
	ldr	r2, [r0, r2]
	add	r2, r2, #2
	sub	r1, fp, #4
	str	r2, [r1, r3]
	ldr	r3, .L6775+232
	ldr	r2, .L6775+232
	sub	r0, fp, #4
	ldr	r2, [r0, r2]
	add	r2, r2, #1
	sub	r1, fp, #4
	str	r2, [r1, r3]
.L927:
	ldr	r2, .L6775+232
	ldr	r3, .L6775+236
	sub	r0, fp, #4
	ldr	r2, [r0, r2]
	sub	r1, fp, #4
	ldr	r3, [r1, r3]
	cmp	r2, r3
	bcc	.L928
	ldr	r3, .L6775+244
	sub	r2, fp, #4
	ldr	r3, [r2, r3]
	ldr	r2, .L6775+240
	sub	r0, fp, #4
	ldr	r2, [r0, r2]
	str	r2, [r3, #4]
	ldr	r3, .L6775+244
	sub	r1, fp, #4
	ldr	r3, [r1, r3]
	ldr	r2, .L6775+228
	sub	r0, fp, #4
	ldr	r2, [r0, r2]
	str	r2, [r3, #8]
	ldr	r3, .L6775+120
	sub	r1, fp, #4
	ldr	r3, [r1, r3]
	cmp	r3, #0
	beq	.L929
	ldr	r3, .L6775+140
	mov	r2, #2
	sub	r0, fp, #4
	str	r2, [r0, r3]
.L929:
	b	.L835
.L853:
	ldr	r3, .L6775+136
	mov	r2, #0
	sub	r1, fp, #4
	str	r2, [r1, r3]
	ldr	r3, .L6775+128
	ldr	r2, .L6775+228
	sub	r0, fp, #4
	ldr	r2, [r0, r2]
	mov	r2, r2, lsr #15
	sub	r1, fp, #4
	str	r2, [r1, r3]
	ldr	r3, .L6775+128
	sub	r2, fp, #4
	ldr	r1, [r2, r3]
	ldr	r3, .L6775+132
	ldr	r2, .L6775+212
	ldr	r2, [r2, r1, asl #2]
	sub	r0, fp, #4
	str	r2, [r0, r3]
	ldr	r3, .L6775+232
	mov	r2, #0
	sub	r1, fp, #4
	str	r2, [r1, r3]
	b	.L930
.L932:
	ldr	r3, .L6775+216
	mov	r2, #0
	sub	r0, fp, #4
	str	r2, [r0, r3]
	ldr	r3, .L6775+124
	ldr	r2, .L6775+228
	sub	r1, fp, #4
	ldr	r2, [r1, r2]
	mov	r2, r2, lsr #15
	sub	r0, fp, #4
	str	r2, [r0, r3]
	ldr	r2, .L6775+124
	ldr	r3, .L6775+128
	sub	r1, fp, #4
	ldr	r2, [r1, r2]
	sub	r0, fp, #4
	ldr	r3, [r0, r3]
	cmp	r2, r3
	beq	.L931
	ldr	r3, .L6775+128
	ldr	r2, .L6775+124
	sub	r1, fp, #4
	ldr	r2, [r1, r2]
	sub	r0, fp, #4
	str	r2, [r0, r3]
	ldr	r3, .L6775+128
	sub	r2, fp, #4
	ldr	r1, [r2, r3]
	ldr	r3, .L6775+132
	ldr	r2, .L6775+212
	ldr	r2, [r2, r1, asl #2]
	sub	r0, fp, #4
	str	r2, [r0, r3]
.L931:
	ldr	r3, .L6775+228
	sub	r1, fp, #4
	ldr	r3, [r1, r3]
	mov	r3, r3, asl #17
	mov	r3, r3, lsr #17
	ldr	r2, .L6775+132
	sub	r0, fp, #4
	ldr	r2, [r0, r2]
	add	r3, r3, r2
	ldr	r2, .L6775+216
	sub	r1, fp, #4
	ldr	r2, [r1, r2]
	mov	r2, r2, asl #16
	mov	r2, r2, lsr #16
	strh	r2, [r3, #0]	@ movhi
	ldr	r3, .L6775+228
	sub	r2, fp, #4
	ldr	r3, [r2, r3]
	mov	r3, r3, asl #17
	mov	r3, r3, lsr #17
	sub	r2, r3, #32768
	ldr	r3, .L6775+132
	sub	r0, fp, #4
	ldr	r3, [r0, r3]
	add	r3, r2, r3
	ldrh	r3, [r3, #0]
	mov	r1, r3
	ldr	r3, .L6775+136
	ldr	r2, .L6775+136
	sub	r0, fp, #4
	ldr	r2, [r0, r2]
	orr	r2, r1, r2
	sub	r1, fp, #4
	str	r2, [r1, r3]
	ldr	r3, .L6775+240
	ldr	r2, .L6775+240
	sub	r0, fp, #4
	ldr	r2, [r0, r2]
	add	r2, r2, #2
	sub	r1, fp, #4
	str	r2, [r1, r3]
	ldr	r3, .L6775+228
	ldr	r2, .L6775+228
	sub	r0, fp, #4
	ldr	r2, [r0, r2]
	add	r2, r2, #2
	sub	r1, fp, #4
	str	r2, [r1, r3]
	ldr	r3, .L6775+232
	ldr	r2, .L6775+232
	sub	r0, fp, #4
	ldr	r2, [r0, r2]
	add	r2, r2, #1
	sub	r1, fp, #4
	str	r2, [r1, r3]
.L930:
	ldr	r2, .L6775+232
	ldr	r3, .L6775+236
	sub	r0, fp, #4
	ldr	r2, [r0, r2]
	sub	r1, fp, #4
	ldr	r3, [r1, r3]
	cmp	r2, r3
	bcc	.L932
	ldr	r3, .L6775+244
	sub	r2, fp, #4
	ldr	r3, [r2, r3]
	ldr	r2, .L6775+240
	sub	r0, fp, #4
	ldr	r2, [r0, r2]
	str	r2, [r3, #4]
	ldr	r3, .L6775+244
	sub	r1, fp, #4
	ldr	r3, [r1, r3]
	ldr	r2, .L6775+228
	sub	r0, fp, #4
	ldr	r2, [r0, r2]
	str	r2, [r3, #8]
	ldr	r3, .L6775+136
	sub	r1, fp, #4
	ldr	r3, [r1, r3]
	cmp	r3, #0
	beq	.L933
	ldr	r3, .L6775+140
	mov	r2, #2
	sub	r0, fp, #4
	str	r2, [r0, r3]
.L933:
	b	.L835
.L845:
	ldr	r3, .L6775+160
	mov	r2, #0
	sub	r1, fp, #4
	str	r2, [r1, r3]
	ldr	r3, .L6775+152
	ldr	r2, .L6775+228
	sub	r0, fp, #4
	ldr	r2, [r0, r2]
	mov	r2, r2, lsr #15
	sub	r1, fp, #4
	str	r2, [r1, r3]
	ldr	r3, .L6775+152
	sub	r2, fp, #4
	ldr	r1, [r2, r3]
	ldr	r3, .L6775+156
	ldr	r2, .L6775+212
	ldr	r2, [r2, r1, asl #2]
	sub	r0, fp, #4
	str	r2, [r0, r3]
	ldr	r3, .L6775+232
	mov	r2, #0
	sub	r1, fp, #4
	str	r2, [r1, r3]
	b	.L934
.L936:
	ldr	r3, .L6775+240
	sub	r2, fp, #4
	ldr	r3, [r2, r3]
	mov	r3, r3, asl #17
	mov	r3, r3, lsr #17
	add	r2, r3, #32768
	ldr	r3, .L6775+144
	add	r3, r2, r3
	ldrh	r2, [r3, #0]
	ldr	r3, .L6775+216
	sub	r0, fp, #4
	str	r2, [r0, r3]
	ldr	r3, .L6775+148
	ldr	r2, .L6775+228
	sub	r1, fp, #4
	ldr	r2, [r1, r2]
	mov	r2, r2, lsr #15
	sub	r0, fp, #4
	str	r2, [r0, r3]
	ldr	r2, .L6775+148
	ldr	r3, .L6775+152
	sub	r1, fp, #4
	ldr	r2, [r1, r2]
	sub	r0, fp, #4
	ldr	r3, [r0, r3]
	cmp	r2, r3
	beq	.L935
	ldr	r3, .L6775+152
	ldr	r2, .L6775+148
	sub	r1, fp, #4
	ldr	r2, [r1, r2]
	sub	r0, fp, #4
	str	r2, [r0, r3]
	ldr	r3, .L6775+152
	sub	r2, fp, #4
	ldr	r1, [r2, r3]
	ldr	r3, .L6775+156
	ldr	r2, .L6775+212
	ldr	r2, [r2, r1, asl #2]
	sub	r0, fp, #4
	str	r2, [r0, r3]
.L935:
	ldr	r3, .L6775+228
	sub	r1, fp, #4
	ldr	r3, [r1, r3]
	mov	r3, r3, asl #17
	mov	r3, r3, lsr #17
	ldr	r2, .L6775+156
	sub	r0, fp, #4
	ldr	r2, [r0, r2]
	add	r3, r3, r2
	ldr	r2, .L6775+216
	sub	r1, fp, #4
	ldr	r2, [r1, r2]
	mov	r2, r2, asl #16
	mov	r2, r2, lsr #16
	strh	r2, [r3, #0]	@ movhi
	ldr	r3, .L6775+228
	sub	r2, fp, #4
	ldr	r3, [r2, r3]
	mov	r3, r3, asl #17
	mov	r3, r3, lsr #17
	sub	r2, r3, #32768
	ldr	r3, .L6775+156
	sub	r0, fp, #4
	ldr	r3, [r0, r3]
	add	r3, r2, r3
	ldrh	r3, [r3, #0]
	mov	r1, r3
	ldr	r3, .L6775+160
	ldr	r2, .L6775+160
	sub	r0, fp, #4
	ldr	r2, [r0, r2]
	orr	r2, r1, r2
	sub	r1, fp, #4
	str	r2, [r1, r3]
	ldr	r3, .L6775+240
	ldr	r2, .L6775+240
	sub	r0, fp, #4
	ldr	r2, [r0, r2]
	add	r2, r2, #2
	sub	r1, fp, #4
	str	r2, [r1, r3]
	ldr	r3, .L6775+228
	ldr	r2, .L6775+228
	sub	r0, fp, #4
	ldr	r2, [r0, r2]
	add	r2, r2, #2
	sub	r1, fp, #4
	str	r2, [r1, r3]
	ldr	r3, .L6775+232
	ldr	r2, .L6775+232
	sub	r0, fp, #4
	ldr	r2, [r0, r2]
	add	r2, r2, #1
	sub	r1, fp, #4
	str	r2, [r1, r3]
.L934:
	ldr	r2, .L6775+232
	ldr	r3, .L6775+236
	sub	r0, fp, #4
	ldr	r2, [r0, r2]
	sub	r1, fp, #4
	ldr	r3, [r1, r3]
	cmp	r2, r3
	bcc	.L936
	ldr	r3, .L6775+244
	sub	r2, fp, #4
	ldr	r3, [r2, r3]
	ldr	r2, .L6775+240
	sub	r0, fp, #4
	ldr	r2, [r0, r2]
	str	r2, [r3, #4]
	ldr	r3, .L6775+244
	sub	r1, fp, #4
	ldr	r3, [r1, r3]
	ldr	r2, .L6775+228
	sub	r0, fp, #4
	ldr	r2, [r0, r2]
	str	r2, [r3, #8]
	ldr	r3, .L6775+160
	sub	r1, fp, #4
	ldr	r3, [r1, r3]
	cmp	r3, #0
	beq	.L937
	ldr	r3, .L6775+196
	mov	r2, #2
	sub	r0, fp, #4
	str	r2, [r0, r3]
.L937:
	b	.L835
.L846:
	ldr	r3, .L6775+168
	ldr	r2, .L6775+240
	sub	r1, fp, #4
	ldr	r2, [r1, r2]
	mov	r2, r2, lsr #15
	sub	r0, fp, #4
	str	r2, [r0, r3]
	ldr	r3, .L6775+168
	sub	r2, fp, #4
	ldr	r1, [r2, r3]
	ldr	r3, .L6775+176
	ldr	r2, .L6775+172
	ldr	r2, [r2, r1, asl #2]
	sub	r0, fp, #4
	str	r2, [r0, r3]
	ldr	r3, .L6775+192
	mov	r2, #0
	sub	r1, fp, #4
	str	r2, [r1, r3]
	ldr	r3, .L6775+184
	ldr	r2, .L6775+228
	sub	r0, fp, #4
	ldr	r2, [r0, r2]
	mov	r2, r2, lsr #15
	sub	r1, fp, #4
	str	r2, [r1, r3]
	ldr	r3, .L6775+184
	sub	r2, fp, #4
	ldr	r1, [r2, r3]
	ldr	r3, .L6775+188
	ldr	r2, .L6775+212
	ldr	r2, [r2, r1, asl #2]
	sub	r0, fp, #4
	str	r2, [r0, r3]
	ldr	r3, .L6775+232
	mov	r2, #0
	sub	r1, fp, #4
	str	r2, [r1, r3]
	b	.L938
.L941:
	ldr	r3, .L6775+164
	ldr	r2, .L6775+240
	sub	r0, fp, #4
	ldr	r2, [r0, r2]
	mov	r2, r2, lsr #15
	sub	r1, fp, #4
	str	r2, [r1, r3]
	ldr	r2, .L6775+164
	ldr	r3, .L6775+168
	sub	r0, fp, #4
	ldr	r2, [r0, r2]
	sub	r1, fp, #4
	ldr	r3, [r1, r3]
	cmp	r2, r3
	beq	.L939
	ldr	r3, .L6775+168
	ldr	r2, .L6775+164
	sub	r0, fp, #4
	ldr	r2, [r0, r2]
	sub	r1, fp, #4
	str	r2, [r1, r3]
	ldr	r3, .L6775+168
	sub	r2, fp, #4
	ldr	r1, [r2, r3]
	ldr	r3, .L6775+176
	ldr	r2, .L6775+172
	ldr	r2, [r2, r1, asl #2]
	sub	r0, fp, #4
	str	r2, [r0, r3]
.L939:
	ldr	r3, .L6775+240
	sub	r1, fp, #4
	ldr	r3, [r1, r3]
	mov	r3, r3, asl #17
	mov	r3, r3, lsr #17
	ldr	r2, .L6775+176
	sub	r0, fp, #4
	ldr	r2, [r0, r2]
	add	r3, r3, r2
	ldrh	r2, [r3, #0]
	ldr	r3, .L6775+216
	sub	r1, fp, #4
	str	r2, [r1, r3]
	ldr	r3, .L6775+180
	ldr	r2, .L6775+228
	sub	r0, fp, #4
	ldr	r2, [r0, r2]
	mov	r2, r2, lsr #15
	sub	r1, fp, #4
	str	r2, [r1, r3]
	ldr	r2, .L6775+180
	ldr	r3, .L6775+184
	sub	r0, fp, #4
	ldr	r2, [r0, r2]
	sub	r1, fp, #4
	ldr	r3, [r1, r3]
	cmp	r2, r3
	beq	.L940
	ldr	r3, .L6775+184
	ldr	r2, .L6775+180
	sub	r0, fp, #4
	ldr	r2, [r0, r2]
	sub	r1, fp, #4
	str	r2, [r1, r3]
	ldr	r3, .L6775+184
	sub	r2, fp, #4
	ldr	r1, [r2, r3]
	ldr	r3, .L6775+188
	ldr	r2, .L6775+212
	ldr	r2, [r2, r1, asl #2]
	sub	r0, fp, #4
	str	r2, [r0, r3]
.L940:
	ldr	r3, .L6775+228
	sub	r1, fp, #4
	ldr	r3, [r1, r3]
	mov	r3, r3, asl #17
	mov	r3, r3, lsr #17
	ldr	r2, .L6775+188
	sub	r0, fp, #4
	ldr	r2, [r0, r2]
	add	r3, r3, r2
	ldr	r2, .L6775+216
	sub	r1, fp, #4
	ldr	r2, [r1, r2]
	mov	r2, r2, asl #16
	mov	r2, r2, lsr #16
	strh	r2, [r3, #0]	@ movhi
	ldr	r3, .L6775+228
	sub	r2, fp, #4
	ldr	r3, [r2, r3]
	mov	r3, r3, asl #17
	mov	r3, r3, lsr #17
	sub	r2, r3, #32768
	ldr	r3, .L6775+188
	sub	r0, fp, #4
	ldr	r3, [r0, r3]
	add	r3, r2, r3
	ldrh	r3, [r3, #0]
	mov	r1, r3
	ldr	r3, .L6775+192
	ldr	r2, .L6775+192
	sub	r0, fp, #4
	ldr	r2, [r0, r2]
	orr	r2, r1, r2
	sub	r1, fp, #4
	str	r2, [r1, r3]
	ldr	r3, .L6775+240
	ldr	r2, .L6775+240
	sub	r0, fp, #4
	ldr	r2, [r0, r2]
	add	r2, r2, #2
	sub	r1, fp, #4
	str	r2, [r1, r3]
	ldr	r3, .L6775+228
	ldr	r2, .L6775+228
	sub	r0, fp, #4
	ldr	r2, [r0, r2]
	add	r2, r2, #2
	sub	r1, fp, #4
	str	r2, [r1, r3]
	ldr	r3, .L6775+232
	ldr	r2, .L6775+232
	sub	r0, fp, #4
	ldr	r2, [r0, r2]
	add	r2, r2, #1
	sub	r1, fp, #4
	str	r2, [r1, r3]
.L938:
	ldr	r2, .L6775+232
	ldr	r3, .L6775+236
	sub	r0, fp, #4
	ldr	r2, [r0, r2]
	sub	r1, fp, #4
	ldr	r3, [r1, r3]
	cmp	r2, r3
	bcc	.L941
	ldr	r3, .L6775+244
	sub	r2, fp, #4
	ldr	r3, [r2, r3]
	ldr	r2, .L6775+240
	sub	r0, fp, #4
	ldr	r2, [r0, r2]
	str	r2, [r3, #4]
	ldr	r3, .L6775+244
	sub	r1, fp, #4
	ldr	r3, [r1, r3]
	ldr	r2, .L6775+228
	sub	r0, fp, #4
	ldr	r2, [r0, r2]
	str	r2, [r3, #8]
	ldr	r3, .L6775+192
	sub	r1, fp, #4
	ldr	r3, [r1, r3]
	cmp	r3, #0
	beq	.L942
	ldr	r3, .L6775+196
	mov	r2, #2
	sub	r0, fp, #4
	str	r2, [r0, r3]
.L942:
	b	.L835
.L847:
	ldr	r3, .L6775+224
	mov	r2, #0
	sub	r1, fp, #4
	str	r2, [r1, r3]
	ldr	r3, .L6775+208
	ldr	r2, .L6775+228
	sub	r0, fp, #4
	ldr	r2, [r0, r2]
	mov	r2, r2, lsr #15
	sub	r1, fp, #4
	str	r2, [r1, r3]
	ldr	r3, .L6775+208
	sub	r2, fp, #4
	ldr	r1, [r2, r3]
	ldr	r3, .L6775+220
	ldr	r2, .L6775+212
	ldr	r2, [r2, r1, asl #2]
	sub	r0, fp, #4
	str	r2, [r0, r3]
	ldr	r3, .L6775+232
	mov	r2, #0
	sub	r1, fp, #4
	str	r2, [r1, r3]
	b	.L943
.L945:
	ldr	r3, .L6775+240
	sub	r2, fp, #4
	ldr	r3, [r2, r3]
	bic	r3, r3, #-16777216
	bic	r3, r3, #16646144
	ldr	r2, .L6775+200
	add	r3, r3, r2
	ldrh	r2, [r3, #0]
	ldr	r3, .L6775+216
	sub	r0, fp, #4
	str	r2, [r0, r3]
	ldr	r3, .L6775+204
	ldr	r2, .L6775+228
	sub	r1, fp, #4
	ldr	r2, [r1, r2]
	mov	r2, r2, lsr #15
	sub	r0, fp, #4
	str	r2, [r0, r3]
	ldr	r2, .L6775+204
	ldr	r3, .L6775+208
	sub	r1, fp, #4
	ldr	r2, [r1, r2]
	sub	r0, fp, #4
	ldr	r3, [r0, r3]
	cmp	r2, r3
	beq	.L944
	ldr	r3, .L6775+208
	ldr	r2, .L6775+204
	sub	r1, fp, #4
	ldr	r2, [r1, r2]
	sub	r0, fp, #4
	str	r2, [r0, r3]
	ldr	r3, .L6775+208
	sub	r2, fp, #4
	ldr	r1, [r2, r3]
	ldr	r3, .L6775+220
	ldr	r2, .L6775+212
	ldr	r2, [r2, r1, asl #2]
	sub	r0, fp, #4
	str	r2, [r0, r3]
.L944:
	ldr	r3, .L6775+228
	sub	r1, fp, #4
	ldr	r3, [r1, r3]
	mov	r3, r3, asl #17
	mov	r3, r3, lsr #17
	ldr	r2, .L6775+220
	sub	r0, fp, #4
	ldr	r2, [r0, r2]
	add	r3, r3, r2
	ldr	r2, .L6775+216
	sub	r1, fp, #4
	ldr	r2, [r1, r2]
	mov	r2, r2, asl #16
	mov	r2, r2, lsr #16
	strh	r2, [r3, #0]	@ movhi
	ldr	r3, .L6775+228
	sub	r2, fp, #4
	ldr	r3, [r2, r3]
	mov	r3, r3, asl #17
	mov	r3, r3, lsr #17
	sub	r2, r3, #32768
	ldr	r3, .L6775+220
	sub	r0, fp, #4
	ldr	r3, [r0, r3]
	add	r3, r2, r3
	ldrh	r3, [r3, #0]
	mov	r1, r3
	ldr	r3, .L6775+224
	ldr	r2, .L6775+224
	sub	r0, fp, #4
	ldr	r2, [r0, r2]
	orr	r2, r1, r2
	sub	r1, fp, #4
	str	r2, [r1, r3]
	ldr	r3, .L6775+240
	ldr	r2, .L6775+240
	sub	r0, fp, #4
	ldr	r2, [r0, r2]
	add	r2, r2, #2
	sub	r1, fp, #4
	str	r2, [r1, r3]
	ldr	r3, .L6775+228
	ldr	r2, .L6775+228
	sub	r0, fp, #4
	ldr	r2, [r0, r2]
	add	r2, r2, #2
	sub	r1, fp, #4
	str	r2, [r1, r3]
	ldr	r3, .L6775+232
	ldr	r2, .L6775+232
	sub	r0, fp, #4
	ldr	r2, [r0, r2]
	add	r2, r2, #1
	sub	r1, fp, #4
	str	r2, [r1, r3]
.L943:
	ldr	r2, .L6775+232
	ldr	r3, .L6775+236
	sub	r0, fp, #4
	ldr	r2, [r0, r2]
	sub	r1, fp, #4
	ldr	r3, [r1, r3]
	cmp	r2, r3
	bcc	.L945
	ldr	r3, .L6775+244
	sub	r2, fp, #4
	ldr	r3, [r2, r3]
	ldr	r2, .L6775+240
	sub	r0, fp, #4
	ldr	r2, [r0, r2]
	str	r2, [r3, #4]
	ldr	r3, .L6775+244
	sub	r1, fp, #4
	ldr	r3, [r1, r3]
	ldr	r2, .L6777
	sub	r0, fp, #4
	ldr	r2, [r0, r2]
	str	r2, [r3, #8]
	ldr	r3, .L6777+4
	sub	r1, fp, #4
	ldr	r3, [r1, r3]
	cmp	r3, #0
	beq	.L946
	ldr	r3, .L6777+8
	mov	r2, #2
	sub	r0, fp, #4
	str	r2, [r0, r3]
.L946:
	b	.L835
.L848:
	ldr	r3, .L6777+12
	mov	r2, #0
	sub	r1, fp, #4
	str	r2, [r1, r3]
	ldr	r3, .L6777+16
	ldr	r2, .L6777
	sub	r0, fp, #4
	ldr	r2, [r0, r2]
	mov	r2, r2, lsr #15
	sub	r1, fp, #4
	str	r2, [r1, r3]
	ldr	r3, .L6777+16
	sub	r2, fp, #4
	ldr	r1, [r2, r3]
	ldr	r3, .L6777+20
	ldr	r2, .L6777+24
	ldr	r2, [r2, r1, asl #2]
	sub	r0, fp, #4
	str	r2, [r0, r3]
	ldr	r3, .L6777+28
	mov	r2, #0
	sub	r1, fp, #4
	str	r2, [r1, r3]
	b	.L947
.L949:
	ldr	r3, .L6777+32
	sub	r2, fp, #4
	ldr	r3, [r2, r3]
	mov	r3, r3, asl #22
	mov	r3, r3, lsr #22
	ldr	r2, .L6777+128
	add	r3, r3, r2
	ldrh	r2, [r3, #0]
	ldr	r3, .L6777+156
	sub	r0, fp, #4
	str	r2, [r0, r3]
	ldr	r3, .L6777+36
	ldr	r2, .L6777
	sub	r1, fp, #4
	ldr	r2, [r1, r2]
	mov	r2, r2, lsr #15
	sub	r0, fp, #4
	str	r2, [r0, r3]
	ldr	r2, .L6777+36
	ldr	r3, .L6777+16
	sub	r1, fp, #4
	ldr	r2, [r1, r2]
	sub	r0, fp, #4
	ldr	r3, [r0, r3]
	cmp	r2, r3
	beq	.L948
	ldr	r3, .L6777+16
	ldr	r2, .L6777+36
	sub	r1, fp, #4
	ldr	r2, [r1, r2]
	sub	r0, fp, #4
	str	r2, [r0, r3]
	ldr	r3, .L6777+16
	sub	r2, fp, #4
	ldr	r1, [r2, r3]
	ldr	r3, .L6777+20
	ldr	r2, .L6777+24
	ldr	r2, [r2, r1, asl #2]
	sub	r0, fp, #4
	str	r2, [r0, r3]
.L948:
	ldr	r3, .L6777
	sub	r1, fp, #4
	ldr	r3, [r1, r3]
	mov	r3, r3, asl #17
	mov	r3, r3, lsr #17
	ldr	r2, .L6777+20
	sub	r0, fp, #4
	ldr	r2, [r0, r2]
	add	r3, r3, r2
	ldr	r2, .L6777+156
	sub	r1, fp, #4
	ldr	r2, [r1, r2]
	mov	r2, r2, asl #16
	mov	r2, r2, lsr #16
	strh	r2, [r3, #0]	@ movhi
	ldr	r3, .L6777
	sub	r2, fp, #4
	ldr	r3, [r2, r3]
	mov	r3, r3, asl #17
	mov	r3, r3, lsr #17
	sub	r2, r3, #32768
	ldr	r3, .L6777+20
	sub	r0, fp, #4
	ldr	r3, [r0, r3]
	add	r3, r2, r3
	ldrh	r3, [r3, #0]
	mov	r1, r3
	ldr	r3, .L6777+12
	ldr	r2, .L6777+12
	sub	r0, fp, #4
	ldr	r2, [r0, r2]
	orr	r2, r1, r2
	sub	r1, fp, #4
	str	r2, [r1, r3]
	ldr	r3, .L6777+32
	ldr	r2, .L6777+32
	sub	r0, fp, #4
	ldr	r2, [r0, r2]
	add	r2, r2, #2
	sub	r1, fp, #4
	str	r2, [r1, r3]
	ldr	r3, .L6777
	ldr	r2, .L6777
	sub	r0, fp, #4
	ldr	r2, [r0, r2]
	add	r2, r2, #2
	sub	r1, fp, #4
	str	r2, [r1, r3]
	ldr	r3, .L6777+28
	ldr	r2, .L6777+28
	sub	r0, fp, #4
	ldr	r2, [r0, r2]
	add	r2, r2, #1
	sub	r1, fp, #4
	str	r2, [r1, r3]
.L947:
	ldr	r2, .L6777+28
	ldr	r3, .L6777+200
	sub	r0, fp, #4
	ldr	r2, [r0, r2]
	sub	r1, fp, #4
	ldr	r3, [r1, r3]
	cmp	r2, r3
	bcc	.L949
	ldr	r3, .L6777+204
	sub	r2, fp, #4
	ldr	r3, [r2, r3]
	ldr	r2, .L6777+32
	sub	r0, fp, #4
	ldr	r2, [r0, r2]
	str	r2, [r3, #4]
	ldr	r3, .L6777+204
	sub	r1, fp, #4
	ldr	r3, [r1, r3]
	ldr	r2, .L6777
	sub	r0, fp, #4
	ldr	r2, [r0, r2]
	str	r2, [r3, #8]
	ldr	r3, .L6777+12
	sub	r1, fp, #4
	ldr	r3, [r1, r3]
	cmp	r3, #0
	beq	.L950
	ldr	r3, .L6777+8
	mov	r2, #2
	sub	r0, fp, #4
	str	r2, [r0, r3]
.L950:
	b	.L835
.L849:
	ldr	r3, .L6777+40
	mov	r2, #0
	sub	r1, fp, #4
	str	r2, [r1, r3]
	ldr	r3, .L6777+44
	ldr	r2, .L6777
	sub	r0, fp, #4
	ldr	r2, [r0, r2]
	mov	r2, r2, lsr #15
	sub	r1, fp, #4
	str	r2, [r1, r3]
	ldr	r3, .L6777+44
	sub	r2, fp, #4
	ldr	r1, [r2, r3]
	ldr	r3, .L6777+48
	ldr	r2, .L6777+24
	ldr	r2, [r2, r1, asl #2]
	sub	r0, fp, #4
	str	r2, [r0, r3]
	ldr	r3, .L6777+28
	mov	r2, #0
	sub	r1, fp, #4
	str	r2, [r1, r3]
	b	.L951
.L953:
	ldr	r3, .L6777+32
	sub	r2, fp, #4
	ldr	r3, [r2, r3]
	mov	r3, r3, asl #22
	mov	r3, r3, lsr #22
	ldr	r2, .L6777+132
	add	r3, r3, r2
	ldrh	r2, [r3, #0]
	ldr	r3, .L6777+156
	sub	r0, fp, #4
	str	r2, [r0, r3]
	ldr	r3, .L6777+52
	ldr	r2, .L6777
	sub	r1, fp, #4
	ldr	r2, [r1, r2]
	mov	r2, r2, lsr #15
	sub	r0, fp, #4
	str	r2, [r0, r3]
	ldr	r2, .L6777+52
	ldr	r3, .L6777+44
	sub	r1, fp, #4
	ldr	r2, [r1, r2]
	sub	r0, fp, #4
	ldr	r3, [r0, r3]
	cmp	r2, r3
	beq	.L952
	ldr	r3, .L6777+44
	ldr	r2, .L6777+52
	sub	r1, fp, #4
	ldr	r2, [r1, r2]
	sub	r0, fp, #4
	str	r2, [r0, r3]
	ldr	r3, .L6777+44
	sub	r2, fp, #4
	ldr	r1, [r2, r3]
	ldr	r3, .L6777+48
	ldr	r2, .L6777+24
	ldr	r2, [r2, r1, asl #2]
	sub	r0, fp, #4
	str	r2, [r0, r3]
.L952:
	ldr	r3, .L6777
	sub	r1, fp, #4
	ldr	r3, [r1, r3]
	mov	r3, r3, asl #17
	mov	r3, r3, lsr #17
	ldr	r2, .L6777+48
	sub	r0, fp, #4
	ldr	r2, [r0, r2]
	add	r3, r3, r2
	ldr	r2, .L6777+156
	sub	r1, fp, #4
	ldr	r2, [r1, r2]
	mov	r2, r2, asl #16
	mov	r2, r2, lsr #16
	strh	r2, [r3, #0]	@ movhi
	ldr	r3, .L6777
	sub	r2, fp, #4
	ldr	r3, [r2, r3]
	mov	r3, r3, asl #17
	mov	r3, r3, lsr #17
	sub	r2, r3, #32768
	ldr	r3, .L6777+48
	sub	r0, fp, #4
	ldr	r3, [r0, r3]
	add	r3, r2, r3
	ldrh	r3, [r3, #0]
	mov	r1, r3
	ldr	r3, .L6777+40
	ldr	r2, .L6777+40
	sub	r0, fp, #4
	ldr	r2, [r0, r2]
	orr	r2, r1, r2
	sub	r1, fp, #4
	str	r2, [r1, r3]
	ldr	r3, .L6777+32
	ldr	r2, .L6777+32
	sub	r0, fp, #4
	ldr	r2, [r0, r2]
	add	r2, r2, #2
	sub	r1, fp, #4
	str	r2, [r1, r3]
	ldr	r3, .L6777
	ldr	r2, .L6777
	sub	r0, fp, #4
	ldr	r2, [r0, r2]
	add	r2, r2, #2
	sub	r1, fp, #4
	str	r2, [r1, r3]
	ldr	r3, .L6777+28
	ldr	r2, .L6777+28
	sub	r0, fp, #4
	ldr	r2, [r0, r2]
	add	r2, r2, #1
	sub	r1, fp, #4
	str	r2, [r1, r3]
.L951:
	ldr	r2, .L6777+28
	ldr	r3, .L6777+200
	sub	r0, fp, #4
	ldr	r2, [r0, r2]
	sub	r1, fp, #4
	ldr	r3, [r1, r3]
	cmp	r2, r3
	bcc	.L953
	ldr	r3, .L6777+204
	sub	r2, fp, #4
	ldr	r3, [r2, r3]
	ldr	r2, .L6777+32
	sub	r0, fp, #4
	ldr	r2, [r0, r2]
	str	r2, [r3, #4]
	ldr	r3, .L6777+204
	sub	r1, fp, #4
	ldr	r3, [r1, r3]
	ldr	r2, .L6777
	sub	r0, fp, #4
	ldr	r2, [r0, r2]
	str	r2, [r3, #8]
	ldr	r3, .L6777+40
	sub	r1, fp, #4
	ldr	r3, [r1, r3]
	cmp	r3, #0
	beq	.L954
	ldr	r3, .L6777+8
	mov	r2, #2
	sub	r0, fp, #4
	str	r2, [r0, r3]
.L954:
	b	.L835
.L850:
	ldr	r3, .L6777+56
	mov	r2, #0
	sub	r1, fp, #4
	str	r2, [r1, r3]
	ldr	r3, .L6777+60
	ldr	r2, .L6777
	sub	r0, fp, #4
	ldr	r2, [r0, r2]
	mov	r2, r2, lsr #15
	sub	r1, fp, #4
	str	r2, [r1, r3]
	ldr	r3, .L6777+60
	sub	r2, fp, #4
	ldr	r1, [r2, r3]
	ldr	r3, .L6777+64
	ldr	r2, .L6777+24
	ldr	r2, [r2, r1, asl #2]
	sub	r0, fp, #4
	str	r2, [r0, r3]
	ldr	r3, .L6777+28
	mov	r2, #0
	sub	r1, fp, #4
	str	r2, [r1, r3]
	b	.L955
.L957:
	ldr	r3, .L6777+32
	sub	r2, fp, #4
	ldr	r3, [r2, r3]
	mov	r3, r3, asl #17
	mov	r3, r3, lsr #17
	ldr	r2, .L6777+136
	add	r3, r3, r2
	ldrh	r2, [r3, #0]
	ldr	r3, .L6777+156
	sub	r0, fp, #4
	str	r2, [r0, r3]
	ldr	r3, .L6777+68
	ldr	r2, .L6777
	sub	r1, fp, #4
	ldr	r2, [r1, r2]
	mov	r2, r2, lsr #15
	sub	r0, fp, #4
	str	r2, [r0, r3]
	ldr	r2, .L6777+68
	ldr	r3, .L6777+60
	sub	r1, fp, #4
	ldr	r2, [r1, r2]
	sub	r0, fp, #4
	ldr	r3, [r0, r3]
	cmp	r2, r3
	beq	.L956
	ldr	r3, .L6777+60
	ldr	r2, .L6777+68
	sub	r1, fp, #4
	ldr	r2, [r1, r2]
	sub	r0, fp, #4
	str	r2, [r0, r3]
	ldr	r3, .L6777+60
	sub	r2, fp, #4
	ldr	r1, [r2, r3]
	ldr	r3, .L6777+64
	ldr	r2, .L6777+24
	ldr	r2, [r2, r1, asl #2]
	sub	r0, fp, #4
	str	r2, [r0, r3]
.L956:
	ldr	r3, .L6777
	sub	r1, fp, #4
	ldr	r3, [r1, r3]
	mov	r3, r3, asl #17
	mov	r3, r3, lsr #17
	ldr	r2, .L6777+64
	sub	r0, fp, #4
	ldr	r2, [r0, r2]
	add	r3, r3, r2
	ldr	r2, .L6777+156
	sub	r1, fp, #4
	ldr	r2, [r1, r2]
	mov	r2, r2, asl #16
	mov	r2, r2, lsr #16
	strh	r2, [r3, #0]	@ movhi
	ldr	r3, .L6777
	sub	r2, fp, #4
	ldr	r3, [r2, r3]
	mov	r3, r3, asl #17
	mov	r3, r3, lsr #17
	sub	r2, r3, #32768
	ldr	r3, .L6777+64
	sub	r0, fp, #4
	ldr	r3, [r0, r3]
	add	r3, r2, r3
	ldrh	r3, [r3, #0]
	mov	r1, r3
	ldr	r3, .L6777+56
	ldr	r2, .L6777+56
	sub	r0, fp, #4
	ldr	r2, [r0, r2]
	orr	r2, r1, r2
	sub	r1, fp, #4
	str	r2, [r1, r3]
	ldr	r3, .L6777+32
	ldr	r2, .L6777+32
	sub	r0, fp, #4
	ldr	r2, [r0, r2]
	add	r2, r2, #2
	sub	r1, fp, #4
	str	r2, [r1, r3]
	ldr	r3, .L6777
	ldr	r2, .L6777
	sub	r0, fp, #4
	ldr	r2, [r0, r2]
	add	r2, r2, #2
	sub	r1, fp, #4
	str	r2, [r1, r3]
	ldr	r3, .L6777+28
	ldr	r2, .L6777+28
	sub	r0, fp, #4
	ldr	r2, [r0, r2]
	add	r2, r2, #1
	sub	r1, fp, #4
	str	r2, [r1, r3]
.L955:
	ldr	r2, .L6777+28
	ldr	r3, .L6777+200
	sub	r0, fp, #4
	ldr	r2, [r0, r2]
	sub	r1, fp, #4
	ldr	r3, [r1, r3]
	cmp	r2, r3
	bcc	.L957
	ldr	r3, .L6777+204
	sub	r2, fp, #4
	ldr	r3, [r2, r3]
	ldr	r2, .L6777+32
	sub	r0, fp, #4
	ldr	r2, [r0, r2]
	str	r2, [r3, #4]
	ldr	r3, .L6777+204
	sub	r1, fp, #4
	ldr	r3, [r1, r3]
	ldr	r2, .L6777
	sub	r0, fp, #4
	ldr	r2, [r0, r2]
	str	r2, [r3, #8]
	ldr	r3, .L6777+56
	sub	r1, fp, #4
	ldr	r3, [r1, r3]
	cmp	r3, #0
	beq	.L958
	ldr	r3, .L6777+8
	mov	r2, #2
	sub	r0, fp, #4
	str	r2, [r0, r3]
.L958:
	b	.L835
.L851:
	ldr	r3, .L6777+72
	ldr	r2, .L6777+32
	sub	r1, fp, #4
	ldr	r2, [r1, r2]
	mov	r2, r2, lsr #15
	sub	r0, fp, #4
	str	r2, [r0, r3]
	ldr	r3, .L6777+72
	sub	r2, fp, #4
	ldr	r1, [r2, r3]
	ldr	r3, .L6777+76
	ldr	r2, .L6777+180
	ldr	r2, [r2, r1, asl #2]
	sub	r0, fp, #4
	str	r2, [r0, r3]
	ldr	r3, .L6777+76
	sub	r1, fp, #4
	ldr	r3, [r1, r3]
	cmp	r3, #0
	bne	.L959
	ldr	r3, .L6777+32
	sub	r2, fp, #4
	ldr	r3, [r2, r3]
	bic	r2, r3, #-33554432
	ldr	r3, .L6777+140
	ldr	r3, [r3, #0]
	cmp	r2, r3
	bcs	.L6593
	ldr	r3, .L6777+72
	sub	r0, fp, #4
	ldr	r3, [r0, r3]
	mov	r3, r3, asl #22
	mov	r3, r3, lsr #22
	mov	r0, r3
	bl	load_gamepak_page
	mov	r2, r0
	ldr	r3, .L6777+76
	sub	r1, fp, #4
	str	r2, [r1, r3]
.L959:
	ldr	r3, .L6777+80
	mov	r2, #0
	sub	r0, fp, #4
	str	r2, [r0, r3]
	ldr	r3, .L6777+84
	ldr	r2, .L6777
	sub	r1, fp, #4
	ldr	r2, [r1, r2]
	mov	r2, r2, lsr #15
	sub	r0, fp, #4
	str	r2, [r0, r3]
	ldr	r3, .L6777+84
	sub	r2, fp, #4
	ldr	r1, [r2, r3]
	ldr	r3, .L6777+88
	ldr	r2, .L6777+24
	ldr	r2, [r2, r1, asl #2]
	sub	r0, fp, #4
	str	r2, [r0, r3]
	ldr	r3, .L6777+28
	mov	r2, #0
	sub	r1, fp, #4
	str	r2, [r1, r3]
	b	.L960
.L963:
	ldr	r3, .L6777+92
	ldr	r2, .L6777+32
	sub	r0, fp, #4
	ldr	r2, [r0, r2]
	mov	r2, r2, lsr #15
	sub	r1, fp, #4
	str	r2, [r1, r3]
	ldr	r2, .L6777+92
	ldr	r3, .L6777+72
	sub	r0, fp, #4
	ldr	r2, [r0, r2]
	sub	r1, fp, #4
	ldr	r3, [r1, r3]
	cmp	r2, r3
	beq	.L961
	ldr	r3, .L6777+72
	ldr	r2, .L6777+92
	sub	r0, fp, #4
	ldr	r2, [r0, r2]
	sub	r1, fp, #4
	str	r2, [r1, r3]
	ldr	r3, .L6777+72
	sub	r2, fp, #4
	ldr	r1, [r2, r3]
	ldr	r3, .L6777+76
	ldr	r2, .L6777+180
	ldr	r2, [r2, r1, asl #2]
	sub	r0, fp, #4
	str	r2, [r0, r3]
	ldr	r3, .L6777+76
	sub	r1, fp, #4
	ldr	r3, [r1, r3]
	cmp	r3, #0
	bne	.L961
	ldr	r3, .L6777+72
	sub	r2, fp, #4
	ldr	r3, [r2, r3]
	mov	r3, r3, asl #22
	mov	r3, r3, lsr #22
	mov	r0, r3
	bl	load_gamepak_page
	mov	r2, r0
	ldr	r3, .L6777+76
	sub	r0, fp, #4
	str	r2, [r0, r3]
.L961:
	ldr	r3, .L6777+32
	sub	r1, fp, #4
	ldr	r3, [r1, r3]
	mov	r3, r3, asl #17
	mov	r3, r3, lsr #17
	ldr	r2, .L6777+76
	sub	r0, fp, #4
	ldr	r2, [r0, r2]
	add	r3, r3, r2
	ldrh	r2, [r3, #0]
	ldr	r3, .L6777+156
	sub	r1, fp, #4
	str	r2, [r1, r3]
	ldr	r3, .L6777+96
	ldr	r2, .L6777
	sub	r0, fp, #4
	ldr	r2, [r0, r2]
	mov	r2, r2, lsr #15
	sub	r1, fp, #4
	str	r2, [r1, r3]
	ldr	r2, .L6777+96
	ldr	r3, .L6777+84
	sub	r0, fp, #4
	ldr	r2, [r0, r2]
	sub	r1, fp, #4
	ldr	r3, [r1, r3]
	cmp	r2, r3
	beq	.L962
	ldr	r3, .L6777+84
	ldr	r2, .L6777+96
	sub	r0, fp, #4
	ldr	r2, [r0, r2]
	sub	r1, fp, #4
	str	r2, [r1, r3]
	ldr	r3, .L6777+84
	sub	r2, fp, #4
	ldr	r1, [r2, r3]
	ldr	r3, .L6777+88
	ldr	r2, .L6777+24
	ldr	r2, [r2, r1, asl #2]
	sub	r0, fp, #4
	str	r2, [r0, r3]
.L962:
	ldr	r3, .L6777
	sub	r1, fp, #4
	ldr	r3, [r1, r3]
	mov	r3, r3, asl #17
	mov	r3, r3, lsr #17
	ldr	r2, .L6777+88
	sub	r0, fp, #4
	ldr	r2, [r0, r2]
	add	r3, r3, r2
	ldr	r2, .L6777+156
	sub	r1, fp, #4
	ldr	r2, [r1, r2]
	mov	r2, r2, asl #16
	mov	r2, r2, lsr #16
	strh	r2, [r3, #0]	@ movhi
	ldr	r3, .L6777
	sub	r2, fp, #4
	ldr	r3, [r2, r3]
	mov	r3, r3, asl #17
	mov	r3, r3, lsr #17
	sub	r2, r3, #32768
	ldr	r3, .L6777+88
	sub	r0, fp, #4
	ldr	r3, [r0, r3]
	add	r3, r2, r3
	ldrh	r3, [r3, #0]
	mov	r1, r3
	ldr	r3, .L6777+80
	ldr	r2, .L6777+80
	sub	r0, fp, #4
	ldr	r2, [r0, r2]
	orr	r2, r1, r2
	sub	r1, fp, #4
	str	r2, [r1, r3]
	ldr	r3, .L6777+32
	ldr	r2, .L6777+32
	sub	r0, fp, #4
	ldr	r2, [r0, r2]
	add	r2, r2, #2
	sub	r1, fp, #4
	str	r2, [r1, r3]
	ldr	r3, .L6777
	ldr	r2, .L6777
	sub	r0, fp, #4
	ldr	r2, [r0, r2]
	add	r2, r2, #2
	sub	r1, fp, #4
	str	r2, [r1, r3]
	ldr	r3, .L6777+28
	ldr	r2, .L6777+28
	sub	r0, fp, #4
	ldr	r2, [r0, r2]
	add	r2, r2, #1
	sub	r1, fp, #4
	str	r2, [r1, r3]
.L960:
	ldr	r2, .L6777+28
	ldr	r3, .L6777+200
	sub	r0, fp, #4
	ldr	r2, [r0, r2]
	sub	r1, fp, #4
	ldr	r3, [r1, r3]
	cmp	r2, r3
	bcc	.L963
	ldr	r3, .L6777+204
	sub	r2, fp, #4
	ldr	r3, [r2, r3]
	ldr	r2, .L6777+32
	sub	r0, fp, #4
	ldr	r2, [r0, r2]
	str	r2, [r3, #4]
	ldr	r3, .L6777+204
	sub	r1, fp, #4
	ldr	r3, [r1, r3]
	ldr	r2, .L6777
	sub	r0, fp, #4
	ldr	r2, [r0, r2]
	str	r2, [r3, #8]
	ldr	r3, .L6777+80
	sub	r1, fp, #4
	ldr	r3, [r1, r3]
	cmp	r3, #0
	beq	.L964
	ldr	r3, .L6777+8
	mov	r2, #2
	sub	r0, fp, #4
	str	r2, [r0, r3]
.L964:
	b	.L835
.L852:
	ldr	r3, .L6777+100
	mov	r2, #0
	sub	r1, fp, #4
	str	r2, [r1, r3]
	ldr	r3, .L6777+104
	ldr	r2, .L6777
	sub	r0, fp, #4
	ldr	r2, [r0, r2]
	mov	r2, r2, lsr #15
	sub	r1, fp, #4
	str	r2, [r1, r3]
	ldr	r3, .L6777+104
	sub	r2, fp, #4
	ldr	r1, [r2, r3]
	ldr	r3, .L6777+108
	ldr	r2, .L6777+24
	ldr	r2, [r2, r1, asl #2]
	sub	r0, fp, #4
	str	r2, [r0, r3]
	ldr	r3, .L6777+28
	mov	r2, #0
	sub	r1, fp, #4
	str	r2, [r1, r3]
	b	.L965
.L967:
	ldr	r3, .L6777+32
	sub	r2, fp, #4
	ldr	r0, [r2, r3]
	bl	read_memory16
	mov	r2, r0
	ldr	r3, .L6777+156
	sub	r0, fp, #4
	str	r2, [r0, r3]
	ldr	r3, .L6777+112
	ldr	r2, .L6777
	sub	r1, fp, #4
	ldr	r2, [r1, r2]
	mov	r2, r2, lsr #15
	sub	r0, fp, #4
	str	r2, [r0, r3]
	ldr	r2, .L6777+112
	ldr	r3, .L6777+104
	sub	r1, fp, #4
	ldr	r2, [r1, r2]
	sub	r0, fp, #4
	ldr	r3, [r0, r3]
	cmp	r2, r3
	beq	.L966
	ldr	r3, .L6777+104
	ldr	r2, .L6777+112
	sub	r1, fp, #4
	ldr	r2, [r1, r2]
	sub	r0, fp, #4
	str	r2, [r0, r3]
	ldr	r3, .L6777+104
	sub	r2, fp, #4
	ldr	r1, [r2, r3]
	ldr	r3, .L6777+108
	ldr	r2, .L6777+24
	ldr	r2, [r2, r1, asl #2]
	sub	r0, fp, #4
	str	r2, [r0, r3]
.L966:
	ldr	r3, .L6777
	sub	r1, fp, #4
	ldr	r3, [r1, r3]
	mov	r3, r3, asl #17
	mov	r3, r3, lsr #17
	ldr	r2, .L6777+108
	sub	r0, fp, #4
	ldr	r2, [r0, r2]
	add	r3, r3, r2
	ldr	r2, .L6777+156
	sub	r1, fp, #4
	ldr	r2, [r1, r2]
	mov	r2, r2, asl #16
	mov	r2, r2, lsr #16
	strh	r2, [r3, #0]	@ movhi
	ldr	r3, .L6777
	sub	r2, fp, #4
	ldr	r3, [r2, r3]
	mov	r3, r3, asl #17
	mov	r3, r3, lsr #17
	sub	r2, r3, #32768
	ldr	r3, .L6777+108
	sub	r0, fp, #4
	ldr	r3, [r0, r3]
	add	r3, r2, r3
	ldrh	r3, [r3, #0]
	mov	r1, r3
	ldr	r3, .L6777+100
	ldr	r2, .L6777+100
	sub	r0, fp, #4
	ldr	r2, [r0, r2]
	orr	r2, r1, r2
	sub	r1, fp, #4
	str	r2, [r1, r3]
	ldr	r3, .L6777+32
	ldr	r2, .L6777+32
	sub	r0, fp, #4
	ldr	r2, [r0, r2]
	add	r2, r2, #2
	sub	r1, fp, #4
	str	r2, [r1, r3]
	ldr	r3, .L6777
	ldr	r2, .L6777
	sub	r0, fp, #4
	ldr	r2, [r0, r2]
	add	r2, r2, #2
	sub	r1, fp, #4
	str	r2, [r1, r3]
	ldr	r3, .L6777+28
	ldr	r2, .L6777+28
	sub	r0, fp, #4
	ldr	r2, [r0, r2]
	add	r2, r2, #1
	sub	r1, fp, #4
	str	r2, [r1, r3]
.L965:
	ldr	r2, .L6777+28
	ldr	r3, .L6777+200
	sub	r0, fp, #4
	ldr	r2, [r0, r2]
	sub	r1, fp, #4
	ldr	r3, [r1, r3]
	cmp	r2, r3
	bcc	.L967
	ldr	r3, .L6777+204
	sub	r2, fp, #4
	ldr	r3, [r2, r3]
	ldr	r2, .L6777+32
	sub	r0, fp, #4
	ldr	r2, [r0, r2]
	str	r2, [r3, #4]
	ldr	r3, .L6777+204
	sub	r1, fp, #4
	ldr	r3, [r1, r3]
	ldr	r2, .L6777
	sub	r0, fp, #4
	ldr	r2, [r0, r2]
	str	r2, [r3, #8]
	ldr	r3, .L6777+100
	sub	r1, fp, #4
	ldr	r3, [r1, r3]
	cmp	r3, #0
	beq	.L968
	ldr	r3, .L6777+8
	mov	r2, #2
	sub	r0, fp, #4
	str	r2, [r0, r3]
.L968:
	b	.L835
.L862:
	ldr	r3, .L6777+28
	mov	r2, #0
	sub	r1, fp, #4
	str	r2, [r1, r3]
	b	.L969
.L970:
	ldr	r3, .L6777+156
	mov	r2, #0
	sub	r0, fp, #4
	str	r2, [r0, r3]
	ldr	r3, .L6777
	sub	r1, fp, #4
	ldr	r3, [r1, r3]
	bic	r3, r3, #-16777216
	bic	r3, r3, #16646144
	ldr	r2, .L6777+216
	add	r3, r3, r2
	ldr	r2, .L6777+156
	sub	r0, fp, #4
	ldr	r2, [r0, r2]
	mov	r2, r2, asl #16
	mov	r2, r2, lsr #16
	strh	r2, [r3, #0]	@ movhi
	ldr	r3, .L6777+32
	ldr	r2, .L6777+32
	sub	r1, fp, #4
	ldr	r2, [r1, r2]
	add	r2, r2, #2
	sub	r0, fp, #4
	str	r2, [r0, r3]
	ldr	r3, .L6777
	ldr	r2, .L6777
	sub	r1, fp, #4
	ldr	r2, [r1, r2]
	add	r2, r2, #2
	sub	r0, fp, #4
	str	r2, [r0, r3]
	ldr	r3, .L6777+28
	ldr	r2, .L6777+28
	sub	r1, fp, #4
	ldr	r2, [r1, r2]
	add	r2, r2, #1
	sub	r0, fp, #4
	str	r2, [r0, r3]
.L969:
	ldr	r2, .L6777+28
	ldr	r3, .L6777+200
	sub	r1, fp, #4
	ldr	r2, [r1, r2]
	sub	r0, fp, #4
	ldr	r3, [r0, r3]
	cmp	r2, r3
	bcc	.L970
	ldr	r3, .L6777+204
	sub	r1, fp, #4
	ldr	r3, [r1, r3]
	ldr	r2, .L6777+32
	sub	r0, fp, #4
	ldr	r2, [r0, r2]
	str	r2, [r3, #4]
	ldr	r3, .L6777+204
	sub	r1, fp, #4
	ldr	r3, [r1, r3]
	ldr	r2, .L6777
	sub	r0, fp, #4
	ldr	r2, [r0, r2]
	str	r2, [r3, #8]
	b	.L3702
.L854:
	ldr	r3, .L6777+28
	mov	r2, #0
	sub	r1, fp, #4
	str	r2, [r1, r3]
	b	.L971
.L972:
	ldr	r3, .L6777+32
	sub	r2, fp, #4
	ldr	r3, [r2, r3]
	mov	r3, r3, asl #17
	mov	r3, r3, lsr #17
	add	r2, r3, #32768
	ldr	r3, .L6777+164
	add	r3, r2, r3
	ldrh	r2, [r3, #0]
	ldr	r3, .L6777+156
	sub	r0, fp, #4
	str	r2, [r0, r3]
	ldr	r3, .L6777
	sub	r1, fp, #4
	ldr	r3, [r1, r3]
	bic	r3, r3, #-16777216
	bic	r3, r3, #16646144
	ldr	r2, .L6777+216
	add	r3, r3, r2
	ldr	r2, .L6777+156
	sub	r0, fp, #4
	ldr	r2, [r0, r2]
	mov	r2, r2, asl #16
	mov	r2, r2, lsr #16
	strh	r2, [r3, #0]	@ movhi
	ldr	r3, .L6777+32
	ldr	r2, .L6777+32
	sub	r1, fp, #4
	ldr	r2, [r1, r2]
	add	r2, r2, #2
	sub	r0, fp, #4
	str	r2, [r0, r3]
	ldr	r3, .L6777
	ldr	r2, .L6777
	sub	r1, fp, #4
	ldr	r2, [r1, r2]
	add	r2, r2, #2
	sub	r0, fp, #4
	str	r2, [r0, r3]
	ldr	r3, .L6777+28
	ldr	r2, .L6777+28
	sub	r1, fp, #4
	ldr	r2, [r1, r2]
	add	r2, r2, #1
	sub	r0, fp, #4
	str	r2, [r0, r3]
.L971:
	ldr	r2, .L6777+28
	ldr	r3, .L6777+200
	sub	r1, fp, #4
	ldr	r2, [r1, r2]
	sub	r0, fp, #4
	ldr	r3, [r0, r3]
	cmp	r2, r3
	bcc	.L972
	ldr	r3, .L6777+204
	sub	r1, fp, #4
	ldr	r3, [r1, r3]
	ldr	r2, .L6777+32
	sub	r0, fp, #4
	ldr	r2, [r0, r2]
	str	r2, [r3, #4]
	ldr	r3, .L6777+204
	sub	r1, fp, #4
	ldr	r3, [r1, r3]
	ldr	r2, .L6777
	sub	r0, fp, #4
	ldr	r2, [r0, r2]
	str	r2, [r3, #8]
	b	.L3702
.L855:
	ldr	r3, .L6777+120
	ldr	r2, .L6777+32
	sub	r1, fp, #4
	ldr	r2, [r1, r2]
	mov	r2, r2, lsr #15
	sub	r0, fp, #4
	str	r2, [r0, r3]
	ldr	r3, .L6777+120
	sub	r2, fp, #4
	ldr	r1, [r2, r3]
	ldr	r3, .L6777+124
	ldr	r2, .L6777+180
	ldr	r2, [r2, r1, asl #2]
	sub	r0, fp, #4
	str	r2, [r0, r3]
	ldr	r3, .L6777+28
	mov	r2, #0
	sub	r1, fp, #4
	str	r2, [r1, r3]
	b	.L973
.L6778:
	.align	2
.L6777:
	.word	-10480
	.word	-10328
	.word	-10476
	.word	-10312
	.word	-10304
	.word	-10300
	.word	memory_map_write
	.word	-10496
	.word	-10484
	.word	-10308
	.word	-10296
	.word	-10288
	.word	-10284
	.word	-10292
	.word	-10280
	.word	-10272
	.word	-10268
	.word	-10276
	.word	-10260
	.word	-10256
	.word	-10252
	.word	-10244
	.word	-10240
	.word	-10264
	.word	-10248
	.word	-10236
	.word	-10228
	.word	-10224
	.word	-10232
	.word	-10220
	.word	-10216
	.word	-10212
	.word	palette_ram
	.word	oam_ram
	.word	io_registers
	.word	gamepak_size
	.word	-10208
	.word	-10204
	.word	-10200
	.word	-10488
	.word	-10196
	.word	iwram
	.word	-10192
	.word	-10188
	.word	-10184
	.word	memory_map_read
	.word	-10180
	.word	palette_ram
	.word	-10176
	.word	palette_ram_converted
	.word	-10492
	.word	-10500
	.word	-10496
	.word	-10484
	.word	vram
	.word	-10488
	.word	-10172
	.word	-10480
.L975:
	ldr	r3, .L6777+116
	ldr	r2, .L6777+212
	sub	r0, fp, #4
	ldr	r2, [r0, r2]
	mov	r2, r2, lsr #15
	sub	r1, fp, #4
	str	r2, [r1, r3]
	ldr	r2, .L6777+116
	ldr	r3, .L6777+120
	sub	r0, fp, #4
	ldr	r2, [r0, r2]
	sub	r1, fp, #4
	ldr	r3, [r1, r3]
	cmp	r2, r3
	beq	.L974
	ldr	r3, .L6777+120
	ldr	r2, .L6777+116
	sub	r0, fp, #4
	ldr	r2, [r0, r2]
